

Microchip MPLAB XC8 Assembler V2.35 build 20211206165544 
                                                                                               Thu Sep 29 19:39:31 2022

Microchip MPLAB XC8 C Compiler v2.35 (Free license) build 20211206165544 Og1 
     1                           	processor	16F887
     2                           	pagewidth 120
     3                           	opt	flic
     4                           	psect	cinit,global,class=CODE,merge=1,delta=2
     5                           	psect	bssCOMMON,global,class=COMMON,space=1,delta=1,noexec
     6                           	psect	bssBANK0,global,class=BANK0,space=1,delta=1,noexec
     7                           	psect	bssBANK1,global,class=BANK1,space=1,delta=1,noexec
     8                           	psect	clrtext,global,class=CODE,delta=2
     9                           	psect	cstackBANK1,global,class=BANK1,space=1,delta=1,noexec
    10                           	psect	cstackCOMMON,global,class=COMMON,space=1,delta=1,noexec
    11                           	psect	cstackBANK0,global,class=BANK0,space=1,delta=1,noexec
    12                           	psect	maintext,global,class=CODE,split=1,delta=2
    13                           	psect	text1,local,class=CODE,merge=1,delta=2
    14                           	psect	text2,local,class=CODE,merge=1,delta=2
    15                           	psect	text3,local,class=CODE,merge=1,delta=2
    16                           	psect	text4,local,class=CODE,merge=1,delta=2
    17                           	psect	text5,local,class=CODE,merge=1,delta=2
    18                           	psect	text6,local,class=CODE,merge=1,delta=2
    19                           	psect	text7,local,class=CODE,merge=1,delta=2
    20                           	psect	text8,local,class=CODE,merge=1,delta=2
    21                           	psect	text9,local,class=CODE,merge=1,delta=2,group=1
    22                           	psect	text10,local,class=CODE,merge=1,delta=2,group=1
    23                           	psect	text11,local,class=CODE,merge=1,delta=2,group=1
    24                           	psect	text12,local,class=CODE,merge=1,delta=2
    25                           	psect	text13,local,class=CODE,merge=1,delta=2
    26                           	psect	text14,local,class=CODE,merge=1,delta=2
    27                           	psect	text15,local,class=CODE,merge=1,delta=2
    28                           	psect	text16,local,class=CODE,merge=1,delta=2
    29                           	psect	text17,local,class=CODE,merge=1,delta=2
    30                           	psect	text18,local,class=CODE,merge=1,delta=2
    31                           	psect	intentry,global,class=CODE,delta=2
    32                           	psect	text19,local,class=CODE,merge=1,delta=2
    33                           	psect	idloc,global,abs,ovrld,class=IDLOC,space=5,delta=2,noexec
    34                           	psect	config,global,abs,ovrld,class=CONFIG,space=4,delta=2,noexec
    35                           	dabs	1,0x7E,2
    36  0000                     
    37                           ; Version 2.40
    38                           ; Generated 17/11/2021 GMT
    39                           ; 
    40                           ; Copyright © 2021, Microchip Technology Inc. and its subsidiaries ("Microchip")
    41                           ; All rights reserved.
    42                           ; 
    43                           ; This software is developed by Microchip Technology Inc. and its subsidiaries ("Microch
      +                          ip").
    44                           ; 
    45                           ; Redistribution and use in source and binary forms, with or without modification, are
    46                           ; permitted provided that the following conditions are met:
    47                           ; 
    48                           ;     1. Redistributions of source code must retain the above copyright notice, this lis
      +                          t of
    49                           ;        conditions and the following disclaimer.
    50                           ; 
    51                           ;     2. Redistributions in binary form must reproduce the above copyright notice, this 
      +                          list
    52                           ;        of conditions and the following disclaimer in the documentation and/or other
    53                           ;        materials provided with the distribution. Publication is not required when
    54                           ;        this file is used in an embedded application.
    55                           ; 
    56                           ;     3. Microchip's name may not be used to endorse or promote products derived from th
      +                          is
    57                           ;        software without specific prior written permission.
    58                           ; 
    59                           ; THIS SOFTWARE IS PROVIDED BY MICROCHIP "AS IS" AND ANY EXPRESS OR IMPLIED WARRANTIES,
    60                           ; INCLUDING, BUT NOT LIMITED TO, THE IMPLIED WARRANTIES OF MERCHANTABILITY AND FITNESS F
      +                          OR
    61                           ; PURPOSE ARE DISCLAIMED.  IN NO EVENT SHALL MICROCHIP BE LIABLE FOR ANY DIRECT, INDIREC
      +                          T,
    62                           ; INCIDENTAL, SPECIAL, EXEMPLARY, OR CONSEQUENTIAL DAMAGES (INCLUDING BUT NOT LIMITED TO
    63                           ; PROCUREMENT OF SUBSTITUTE GOODS OR SERVICES; LOSS OF USE, DATA OR PROFITS; OR BUSINESS
    64                           ; INTERRUPTION) HOWSOEVER CAUSED AND ON ANY THEORY OF LIABILITY, WHETHER IN CONTRACT, ST
      +                          RICT
    65                           ; LIABILITY, OR TORT (INCLUDING NEGLIGENCE OR OTHERWISE) ARISING IN ANY WAY OUT OF THE U
      +                          SE OF
    66                           ; THIS SOFTWARE, EVEN IF ADVISED OF THE POSSIBILITY OF SUCH DAMAGE.
    67                           ; 
    68                           ; 
    69                           ; Code-generator required, PIC16F887 Definitions
    70                           ; 
    71                           ; SFR Addresses
    72  0000                     	;# 
    73  0001                     	;# 
    74  0002                     	;# 
    75  0003                     	;# 
    76  0004                     	;# 
    77  0005                     	;# 
    78  0006                     	;# 
    79  0007                     	;# 
    80  0008                     	;# 
    81  0009                     	;# 
    82  000A                     	;# 
    83  000B                     	;# 
    84  000C                     	;# 
    85  000D                     	;# 
    86  000E                     	;# 
    87  000E                     	;# 
    88  000F                     	;# 
    89  0010                     	;# 
    90  0011                     	;# 
    91  0012                     	;# 
    92  0013                     	;# 
    93  0014                     	;# 
    94  0015                     	;# 
    95  0015                     	;# 
    96  0016                     	;# 
    97  0017                     	;# 
    98  0018                     	;# 
    99  0019                     	;# 
   100  001A                     	;# 
   101  001B                     	;# 
   102  001B                     	;# 
   103  001C                     	;# 
   104  001D                     	;# 
   105  001E                     	;# 
   106  001F                     	;# 
   107  0081                     	;# 
   108  0085                     	;# 
   109  0086                     	;# 
   110  0087                     	;# 
   111  0088                     	;# 
   112  0089                     	;# 
   113  008C                     	;# 
   114  008D                     	;# 
   115  008E                     	;# 
   116  008F                     	;# 
   117  0090                     	;# 
   118  0091                     	;# 
   119  0092                     	;# 
   120  0093                     	;# 
   121  0093                     	;# 
   122  0093                     	;# 
   123  0094                     	;# 
   124  0095                     	;# 
   125  0096                     	;# 
   126  0097                     	;# 
   127  0098                     	;# 
   128  0099                     	;# 
   129  009A                     	;# 
   130  009B                     	;# 
   131  009C                     	;# 
   132  009D                     	;# 
   133  009E                     	;# 
   134  009F                     	;# 
   135  0105                     	;# 
   136  0107                     	;# 
   137  0108                     	;# 
   138  0109                     	;# 
   139  010C                     	;# 
   140  010C                     	;# 
   141  010D                     	;# 
   142  010E                     	;# 
   143  010F                     	;# 
   144  0185                     	;# 
   145  0187                     	;# 
   146  0188                     	;# 
   147  0189                     	;# 
   148  018C                     	;# 
   149  018D                     	;# 
   150  0000                     	;# 
   151  0001                     	;# 
   152  0002                     	;# 
   153  0003                     	;# 
   154  0004                     	;# 
   155  0005                     	;# 
   156  0006                     	;# 
   157  0007                     	;# 
   158  0008                     	;# 
   159  0009                     	;# 
   160  000A                     	;# 
   161  000B                     	;# 
   162  000C                     	;# 
   163  000D                     	;# 
   164  000E                     	;# 
   165  000E                     	;# 
   166  000F                     	;# 
   167  0010                     	;# 
   168  0011                     	;# 
   169  0012                     	;# 
   170  0013                     	;# 
   171  0014                     	;# 
   172  0015                     	;# 
   173  0015                     	;# 
   174  0016                     	;# 
   175  0017                     	;# 
   176  0018                     	;# 
   177  0019                     	;# 
   178  001A                     	;# 
   179  001B                     	;# 
   180  001B                     	;# 
   181  001C                     	;# 
   182  001D                     	;# 
   183  001E                     	;# 
   184  001F                     	;# 
   185  0081                     	;# 
   186  0085                     	;# 
   187  0086                     	;# 
   188  0087                     	;# 
   189  0088                     	;# 
   190  0089                     	;# 
   191  008C                     	;# 
   192  008D                     	;# 
   193  008E                     	;# 
   194  008F                     	;# 
   195  0090                     	;# 
   196  0091                     	;# 
   197  0092                     	;# 
   198  0093                     	;# 
   199  0093                     	;# 
   200  0093                     	;# 
   201  0094                     	;# 
   202  0095                     	;# 
   203  0096                     	;# 
   204  0097                     	;# 
   205  0098                     	;# 
   206  0099                     	;# 
   207  009A                     	;# 
   208  009B                     	;# 
   209  009C                     	;# 
   210  009D                     	;# 
   211  009E                     	;# 
   212  009F                     	;# 
   213  0105                     	;# 
   214  0107                     	;# 
   215  0108                     	;# 
   216  0109                     	;# 
   217  010C                     	;# 
   218  010C                     	;# 
   219  010D                     	;# 
   220  010E                     	;# 
   221  010F                     	;# 
   222  0185                     	;# 
   223  0187                     	;# 
   224  0188                     	;# 
   225  0189                     	;# 
   226  018C                     	;# 
   227  018D                     	;# 
   228  0000                     	;# 
   229  0001                     	;# 
   230  0002                     	;# 
   231  0003                     	;# 
   232  0004                     	;# 
   233  0005                     	;# 
   234  0006                     	;# 
   235  0007                     	;# 
   236  0008                     	;# 
   237  0009                     	;# 
   238  000A                     	;# 
   239  000B                     	;# 
   240  000C                     	;# 
   241  000D                     	;# 
   242  000E                     	;# 
   243  000E                     	;# 
   244  000F                     	;# 
   245  0010                     	;# 
   246  0011                     	;# 
   247  0012                     	;# 
   248  0013                     	;# 
   249  0014                     	;# 
   250  0015                     	;# 
   251  0015                     	;# 
   252  0016                     	;# 
   253  0017                     	;# 
   254  0018                     	;# 
   255  0019                     	;# 
   256  001A                     	;# 
   257  001B                     	;# 
   258  001B                     	;# 
   259  001C                     	;# 
   260  001D                     	;# 
   261  001E                     	;# 
   262  001F                     	;# 
   263  0081                     	;# 
   264  0085                     	;# 
   265  0086                     	;# 
   266  0087                     	;# 
   267  0088                     	;# 
   268  0089                     	;# 
   269  008C                     	;# 
   270  008D                     	;# 
   271  008E                     	;# 
   272  008F                     	;# 
   273  0090                     	;# 
   274  0091                     	;# 
   275  0092                     	;# 
   276  0093                     	;# 
   277  0093                     	;# 
   278  0093                     	;# 
   279  0094                     	;# 
   280  0095                     	;# 
   281  0096                     	;# 
   282  0097                     	;# 
   283  0098                     	;# 
   284  0099                     	;# 
   285  009A                     	;# 
   286  009B                     	;# 
   287  009C                     	;# 
   288  009D                     	;# 
   289  009E                     	;# 
   290  009F                     	;# 
   291  0105                     	;# 
   292  0107                     	;# 
   293  0108                     	;# 
   294  0109                     	;# 
   295  010C                     	;# 
   296  010C                     	;# 
   297  010D                     	;# 
   298  010E                     	;# 
   299  010F                     	;# 
   300  0185                     	;# 
   301  0187                     	;# 
   302  0188                     	;# 
   303  0189                     	;# 
   304  018C                     	;# 
   305  018D                     	;# 
   306  0000                     	;# 
   307  0001                     	;# 
   308  0002                     	;# 
   309  0003                     	;# 
   310  0004                     	;# 
   311  0005                     	;# 
   312  0006                     	;# 
   313  0007                     	;# 
   314  0008                     	;# 
   315  0009                     	;# 
   316  000A                     	;# 
   317  000B                     	;# 
   318  000C                     	;# 
   319  000D                     	;# 
   320  000E                     	;# 
   321  000E                     	;# 
   322  000F                     	;# 
   323  0010                     	;# 
   324  0011                     	;# 
   325  0012                     	;# 
   326  0013                     	;# 
   327  0014                     	;# 
   328  0015                     	;# 
   329  0015                     	;# 
   330  0016                     	;# 
   331  0017                     	;# 
   332  0018                     	;# 
   333  0019                     	;# 
   334  001A                     	;# 
   335  001B                     	;# 
   336  001B                     	;# 
   337  001C                     	;# 
   338  001D                     	;# 
   339  001E                     	;# 
   340  001F                     	;# 
   341  0081                     	;# 
   342  0085                     	;# 
   343  0086                     	;# 
   344  0087                     	;# 
   345  0088                     	;# 
   346  0089                     	;# 
   347  008C                     	;# 
   348  008D                     	;# 
   349  008E                     	;# 
   350  008F                     	;# 
   351  0090                     	;# 
   352  0091                     	;# 
   353  0092                     	;# 
   354  0093                     	;# 
   355  0093                     	;# 
   356  0093                     	;# 
   357  0094                     	;# 
   358  0095                     	;# 
   359  0096                     	;# 
   360  0097                     	;# 
   361  0098                     	;# 
   362  0099                     	;# 
   363  009A                     	;# 
   364  009B                     	;# 
   365  009C                     	;# 
   366  009D                     	;# 
   367  009E                     	;# 
   368  009F                     	;# 
   369  0105                     	;# 
   370  0107                     	;# 
   371  0108                     	;# 
   372  0109                     	;# 
   373  010C                     	;# 
   374  010C                     	;# 
   375  010D                     	;# 
   376  010E                     	;# 
   377  010F                     	;# 
   378  0185                     	;# 
   379  0187                     	;# 
   380  0188                     	;# 
   381  0189                     	;# 
   382  018C                     	;# 
   383  018D                     	;# 
   384  0000                     	;# 
   385  0001                     	;# 
   386  0002                     	;# 
   387  0003                     	;# 
   388  0004                     	;# 
   389  0005                     	;# 
   390  0006                     	;# 
   391  0007                     	;# 
   392  0008                     	;# 
   393  0009                     	;# 
   394  000A                     	;# 
   395  000B                     	;# 
   396  000C                     	;# 
   397  000D                     	;# 
   398  000E                     	;# 
   399  000E                     	;# 
   400  000F                     	;# 
   401  0010                     	;# 
   402  0011                     	;# 
   403  0012                     	;# 
   404  0013                     	;# 
   405  0014                     	;# 
   406  0015                     	;# 
   407  0015                     	;# 
   408  0016                     	;# 
   409  0017                     	;# 
   410  0018                     	;# 
   411  0019                     	;# 
   412  001A                     	;# 
   413  001B                     	;# 
   414  001B                     	;# 
   415  001C                     	;# 
   416  001D                     	;# 
   417  001E                     	;# 
   418  001F                     	;# 
   419  0081                     	;# 
   420  0085                     	;# 
   421  0086                     	;# 
   422  0087                     	;# 
   423  0088                     	;# 
   424  0089                     	;# 
   425  008C                     	;# 
   426  008D                     	;# 
   427  008E                     	;# 
   428  008F                     	;# 
   429  0090                     	;# 
   430  0091                     	;# 
   431  0092                     	;# 
   432  0093                     	;# 
   433  0093                     	;# 
   434  0093                     	;# 
   435  0094                     	;# 
   436  0095                     	;# 
   437  0096                     	;# 
   438  0097                     	;# 
   439  0098                     	;# 
   440  0099                     	;# 
   441  009A                     	;# 
   442  009B                     	;# 
   443  009C                     	;# 
   444  009D                     	;# 
   445  009E                     	;# 
   446  009F                     	;# 
   447  0105                     	;# 
   448  0107                     	;# 
   449  0108                     	;# 
   450  0109                     	;# 
   451  010C                     	;# 
   452  010C                     	;# 
   453  010D                     	;# 
   454  010E                     	;# 
   455  010F                     	;# 
   456  0185                     	;# 
   457  0187                     	;# 
   458  0188                     	;# 
   459  0189                     	;# 
   460  018C                     	;# 
   461  018D                     	;# 
   462  0000                     	;# 
   463  0001                     	;# 
   464  0002                     	;# 
   465  0003                     	;# 
   466  0004                     	;# 
   467  0005                     	;# 
   468  0006                     	;# 
   469  0007                     	;# 
   470  0008                     	;# 
   471  0009                     	;# 
   472  000A                     	;# 
   473  000B                     	;# 
   474  000C                     	;# 
   475  000D                     	;# 
   476  000E                     	;# 
   477  000E                     	;# 
   478  000F                     	;# 
   479  0010                     	;# 
   480  0011                     	;# 
   481  0012                     	;# 
   482  0013                     	;# 
   483  0014                     	;# 
   484  0015                     	;# 
   485  0015                     	;# 
   486  0016                     	;# 
   487  0017                     	;# 
   488  0018                     	;# 
   489  0019                     	;# 
   490  001A                     	;# 
   491  001B                     	;# 
   492  001B                     	;# 
   493  001C                     	;# 
   494  001D                     	;# 
   495  001E                     	;# 
   496  001F                     	;# 
   497  0081                     	;# 
   498  0085                     	;# 
   499  0086                     	;# 
   500  0087                     	;# 
   501  0088                     	;# 
   502  0089                     	;# 
   503  008C                     	;# 
   504  008D                     	;# 
   505  008E                     	;# 
   506  008F                     	;# 
   507  0090                     	;# 
   508  0091                     	;# 
   509  0092                     	;# 
   510  0093                     	;# 
   511  0093                     	;# 
   512  0093                     	;# 
   513  0094                     	;# 
   514  0095                     	;# 
   515  0096                     	;# 
   516  0097                     	;# 
   517  0098                     	;# 
   518  0099                     	;# 
   519  009A                     	;# 
   520  009B                     	;# 
   521  009C                     	;# 
   522  009D                     	;# 
   523  009E                     	;# 
   524  009F                     	;# 
   525  0105                     	;# 
   526  0107                     	;# 
   527  0108                     	;# 
   528  0109                     	;# 
   529  010C                     	;# 
   530  010C                     	;# 
   531  010D                     	;# 
   532  010E                     	;# 
   533  010F                     	;# 
   534  0185                     	;# 
   535  0187                     	;# 
   536  0188                     	;# 
   537  0189                     	;# 
   538  018C                     	;# 
   539  018D                     	;# 
   540  0000                     	;# 
   541  0001                     	;# 
   542  0002                     	;# 
   543  0003                     	;# 
   544  0004                     	;# 
   545  0005                     	;# 
   546  0006                     	;# 
   547  0007                     	;# 
   548  0008                     	;# 
   549  0009                     	;# 
   550  000A                     	;# 
   551  000B                     	;# 
   552  000C                     	;# 
   553  000D                     	;# 
   554  000E                     	;# 
   555  000E                     	;# 
   556  000F                     	;# 
   557  0010                     	;# 
   558  0011                     	;# 
   559  0012                     	;# 
   560  0013                     	;# 
   561  0014                     	;# 
   562  0015                     	;# 
   563  0015                     	;# 
   564  0016                     	;# 
   565  0017                     	;# 
   566  0018                     	;# 
   567  0019                     	;# 
   568  001A                     	;# 
   569  001B                     	;# 
   570  001B                     	;# 
   571  001C                     	;# 
   572  001D                     	;# 
   573  001E                     	;# 
   574  001F                     	;# 
   575  0081                     	;# 
   576  0085                     	;# 
   577  0086                     	;# 
   578  0087                     	;# 
   579  0088                     	;# 
   580  0089                     	;# 
   581  008C                     	;# 
   582  008D                     	;# 
   583  008E                     	;# 
   584  008F                     	;# 
   585  0090                     	;# 
   586  0091                     	;# 
   587  0092                     	;# 
   588  0093                     	;# 
   589  0093                     	;# 
   590  0093                     	;# 
   591  0094                     	;# 
   592  0095                     	;# 
   593  0096                     	;# 
   594  0097                     	;# 
   595  0098                     	;# 
   596  0099                     	;# 
   597  009A                     	;# 
   598  009B                     	;# 
   599  009C                     	;# 
   600  009D                     	;# 
   601  009E                     	;# 
   602  009F                     	;# 
   603  0105                     	;# 
   604  0107                     	;# 
   605  0108                     	;# 
   606  0109                     	;# 
   607  010C                     	;# 
   608  010C                     	;# 
   609  010D                     	;# 
   610  010E                     	;# 
   611  010F                     	;# 
   612  0185                     	;# 
   613  0187                     	;# 
   614  0188                     	;# 
   615  0189                     	;# 
   616  018C                     	;# 
   617  018D                     	;# 
   618  0013                     _SSPBUF	set	19
   619  0014                     _SSPCON	set	20
   620  0001                     _TMR0	set	1
   621  0007                     _PORTC	set	7
   622  0008                     _PORTD	set	8
   623  0019                     _TXREG	set	25
   624  001A                     _RCREG	set	26
   625  0006                     _PORTB	set	6
   626  000C                     _PIR1bits	set	12
   627  000B                     _INTCONbits	set	11
   628  0018                     _RCSTAbits	set	24
   629  005F                     _GIE	set	95
   630  005E                     _PEIE	set	94
   631  0063                     _SSPIF	set	99
   632  0091                     _SSPCON2bits	set	145
   633  0094                     _SSPSTAT	set	148
   634  0093                     _SSPADD	set	147
   635  0091                     _SSPCON2	set	145
   636  0081                     _OPTION_REGbits	set	129
   637  008C                     _PIE1bits	set	140
   638  0087                     _TRISCbits	set	135
   639  0088                     _TRISD	set	136
   640  0086                     _TRISB	set	134
   641  008F                     _OSCCONbits	set	143
   642  009A                     _SPBRGH	set	154
   643  0099                     _SPBRG	set	153
   644  0098                     _TXSTAbits	set	152
   645  0463                     _SSPIE	set	1123
   646  043C                     _TRISC4	set	1084
   647  043B                     _TRISC3	set	1083
   648  0189                     _ANSELH	set	393
   649  0188                     _ANSEL	set	392
   650  0187                     _BAUDCTLbits	set	391
   651                           
   652                           	psect	cinit
   653  000F                     start_initialization:	
   654                           ; #config settings
   655                           
   656  000F                     __initialization:
   657                           
   658                           ; Clear objects allocated to COMMON
   659  000F  01F8               	clrf	__pbssCOMMON& (0+127)
   660  0010  01F9               	clrf	(__pbssCOMMON+1)& (0+127)
   661  0011  01FA               	clrf	(__pbssCOMMON+2)& (0+127)
   662                           
   663                           ; Clear objects allocated to BANK0
   664  0012  1383               	bcf	3,7	;select IRP bank0
   665  0013  3061               	movlw	low __pbssBANK0
   666  0014  0084               	movwf	4
   667  0015  306B               	movlw	low (__pbssBANK0+10)
   668  0016  120A  158A  214A  120A  118A  	fcall	clear_ram0
   669                           
   670                           ; Clear objects allocated to BANK1
   671  001B  30A0               	movlw	low __pbssBANK1
   672  001C  0084               	movwf	4
   673  001D  30BB               	movlw	low (__pbssBANK1+27)
   674  001E  120A  158A  214A  120A  118A  	fcall	clear_ram0
   675  0023                     end_of_initialization:	
   676                           ;End of C runtime variable initialization code
   677                           
   678  0023                     __end_of__initialization:
   679  0023  0183               	clrf	3
   680  0024  120A  118A  2827   	ljmp	_main	;jump to C main() function
   681                           
   682                           	psect	bssCOMMON
   683  0078                     __pbssCOMMON:
   684  0078                     _data4:
   685  0078                     	ds	1
   686  0079                     _data3:
   687  0079                     	ds	1
   688  007A                     _data2:
   689  007A                     	ds	1
   690                           
   691                           	psect	bssBANK0
   692  0061                     __pbssBANK0:
   693  0061                     _temp:
   694  0061                     	ds	4
   695  0065                     _cont:
   696  0065                     	ds	1
   697  0066                     _data1:
   698  0066                     	ds	1
   699  0067                     _low1:
   700  0067                     	ds	1
   701  0068                     _high1:
   702  0068                     	ds	1
   703  0069                     _low0:
   704  0069                     	ds	1
   705  006A                     _high0:
   706  006A                     	ds	1
   707                           
   708                           	psect	bssBANK1
   709  00A0                     __pbssBANK1:
   710  00A0                     _lux:
   711  00A0                     	ds	4
   712  00A4                     _dig3:
   713  00A4                     	ds	2
   714  00A6                     _dig2:
   715  00A6                     	ds	2
   716  00A8                     _dig1:
   717  00A8                     	ds	2
   718  00AA                     _channel1:
   719  00AA                     	ds	2
   720  00AC                     _channel0:
   721  00AC                     	ds	2
   722  00AE                     _val3:
   723  00AE                     	ds	1
   724  00AF                     _val2:
   725  00AF                     	ds	1
   726  00B0                     _val:
   727  00B0                     	ds	1
   728  00B1                     _temperatura:
   729  00B1                     	ds	1
   730  00B2                     _var3_2:
   731  00B2                     	ds	1
   732  00B3                     _var3_1:
   733  00B3                     	ds	1
   734  00B4                     _var2_2:
   735  00B4                     	ds	1
   736  00B5                     _var2_1:
   737  00B5                     	ds	1
   738  00B6                     _var1_2:
   739  00B6                     	ds	1
   740  00B7                     _var1_1:
   741  00B7                     	ds	1
   742  00B8                     _temp3:
   743  00B8                     	ds	1
   744  00B9                     _temp2:
   745  00B9                     	ds	1
   746  00BA                     _temp1:
   747  00BA                     	ds	1
   748                           
   749                           	psect	clrtext
   750  094A                     clear_ram0:	
   751                           ;	Called with FSR containing the base address, and
   752                           ;	W with the last address+1
   753                           
   754  094A  0064               	clrwdt	;clear the watchdog before getting into this loop
   755  094B                     clrloop0:
   756  094B  0180               	clrf	0	;clear RAM location pointed to by FSR
   757  094C  0A84               	incf	4,f	;increment pointer
   758  094D  0604               	xorwf	4,w	;XOR with final address
   759  094E  1903               	btfsc	3,2	;have we reached the end yet?
   760  094F  3400               	retlw	0	;all done for this memory range, return
   761  0950  0604               	xorwf	4,w	;XOR again to restore value
   762  0951  294B               	goto	clrloop0	;do the next byte
   763                           
   764                           	psect	cstackBANK1
   765  00BB                     __pcstackBANK1:
   766  00BB                     ??_main:
   767                           
   768                           ; 1 bytes @ 0x0
   769  00BB                     	ds	8
   770                           
   771                           	psect	cstackCOMMON
   772  0070                     __pcstackCOMMON:
   773  0070                     ?_tmr0_reload:
   774  0070                     ?_setup:	
   775                           ; 1 bytes @ 0x0
   776                           
   777  0070                     ?_I2C_Master_Start:	
   778                           ; 1 bytes @ 0x0
   779                           
   780  0070                     ?_I2C_Master_Stop:	
   781                           ; 1 bytes @ 0x0
   782                           
   783  0070                     ?_I2C_Master_RepeatedStart:	
   784                           ; 1 bytes @ 0x0
   785                           
   786  0070                     ?_tmr0_init:	
   787                           ; 1 bytes @ 0x0
   788                           
   789  0070                     ?_init_UART:	
   790                           ; 1 bytes @ 0x0
   791                           
   792  0070                     ?_init_osc_MHz:	
   793                           ; 1 bytes @ 0x0
   794                           
   795  0070                     ?_isr:	
   796                           ; 1 bytes @ 0x0
   797                           
   798  0070                     ??_isr:	
   799                           ; 1 bytes @ 0x0
   800                           
   801  0070                     ?_main:	
   802                           ; 1 bytes @ 0x0
   803                           
   804  0070                     ?_I2C_Master_Wait:	
   805                           ; 1 bytes @ 0x0
   806                           
   807  0070                     ?i1_tmr0_reload:	
   808                           ; 1 bytes @ 0x0
   809                           
   810  0070                     ??i1_tmr0_reload:	
   811                           ; 1 bytes @ 0x0
   812                           
   813                           
   814                           ; 1 bytes @ 0x0
   815  0070                     	ds	3
   816  0073                     ??_tmr0_reload:
   817  0073                     ??_I2C_Master_Start:	
   818                           ; 1 bytes @ 0x3
   819                           
   820  0073                     ?_I2C_Master_Write:	
   821                           ; 1 bytes @ 0x3
   822                           
   823  0073                     ??_I2C_Master_Stop:	
   824                           ; 1 bytes @ 0x3
   825                           
   826  0073                     ??_I2C_Master_RepeatedStart:	
   827                           ; 1 bytes @ 0x3
   828                           
   829  0073                     ??_tmr0_init:	
   830                           ; 1 bytes @ 0x3
   831                           
   832  0073                     ??_init_UART:	
   833                           ; 1 bytes @ 0x3
   834                           
   835  0073                     ??_init_osc_MHz:	
   836                           ; 1 bytes @ 0x3
   837                           
   838  0073                     ??_I2C_Master_Wait:	
   839                           ; 1 bytes @ 0x3
   840                           
   841  0073                     ??___lmul:	
   842                           ; 1 bytes @ 0x3
   843                           
   844  0073                     ??___lldiv:	
   845                           ; 1 bytes @ 0x3
   846                           
   847  0073                     ?_I2C_Master_Read:	
   848                           ; 1 bytes @ 0x3
   849                           
   850  0073                     I2C_Master_Write@d:	
   851                           ; 2 bytes @ 0x3
   852                           
   853  0073                     I2C_Master_Read@a:	
   854                           ; 2 bytes @ 0x3
   855                           
   856                           
   857                           ; 2 bytes @ 0x3
   858  0073                     	ds	1
   859  0074                     ??_I2C_Master_Init:
   860  0074                     ___lmul@product:	
   861                           ; 1 bytes @ 0x4
   862                           
   863                           
   864                           ; 4 bytes @ 0x4
   865  0074                     	ds	1
   866  0075                     ??_I2C_Master_Write:
   867  0075                     ??_I2C_Master_Read:	
   868                           ; 1 bytes @ 0x5
   869                           
   870  0075                     init_osc_MHz@freq:	
   871                           ; 1 bytes @ 0x5
   872                           
   873  0075                     tmr0_init@prescaler:	
   874                           ; 1 bytes @ 0x5
   875                           
   876                           
   877                           ; 1 bytes @ 0x5
   878  0075                     	ds	3
   879  0078                     ??_setup:
   880                           
   881                           	psect	cstackBANK0
   882  0020                     __pcstackBANK0:	
   883                           ; 1 bytes @ 0x8
   884                           
   885  0020                     ?___lmul:
   886  0020                     ?___lldiv:	
   887                           ; 4 bytes @ 0x0
   888                           
   889  0020                     I2C_Master_Read@temp:	
   890                           ; 4 bytes @ 0x0
   891                           
   892  0020                     ___lmul@multiplier:	
   893                           ; 2 bytes @ 0x0
   894                           
   895  0020                     ___lldiv@divisor:	
   896                           ; 4 bytes @ 0x0
   897                           
   898                           
   899                           ; 4 bytes @ 0x0
   900  0020                     	ds	4
   901  0024                     ___lmul@multiplicand:
   902  0024                     ___lldiv@dividend:	
   903                           ; 4 bytes @ 0x4
   904                           
   905                           
   906                           ; 4 bytes @ 0x4
   907  0024                     	ds	4
   908  0028                     ?_calculateTemp:
   909  0028                     calculateTemp@temp:	
   910                           ; 2 bytes @ 0x8
   911                           
   912  0028                     ___lldiv@quotient:	
   913                           ; 4 bytes @ 0x8
   914                           
   915                           
   916                           ; 4 bytes @ 0x8
   917  0028                     	ds	4
   918  002C                     ___lldiv@counter:
   919  002C                     calculateTemp@dig1:	
   920                           ; 1 bytes @ 0xC
   921                           
   922                           
   923                           ; 2 bytes @ 0xC
   924  002C                     	ds	1
   925  002D                     ?_I2C_Master_Init:
   926  002D                     ?_calculateLux:	
   927                           ; 1 bytes @ 0xD
   928                           
   929  002D                     calculateLux@broadband:	
   930                           ; 4 bytes @ 0xD
   931                           
   932  002D                     I2C_Master_Init@c:	
   933                           ; 2 bytes @ 0xD
   934                           
   935                           
   936                           ; 4 bytes @ 0xD
   937  002D                     	ds	1
   938  002E                     calculateTemp@dig2:
   939                           
   940                           ; 2 bytes @ 0xE
   941  002E                     	ds	1
   942  002F                     calculateLux@ir:
   943                           
   944                           ; 2 bytes @ 0xF
   945  002F                     	ds	1
   946  0030                     calculateTemp@dig3:
   947                           
   948                           ; 2 bytes @ 0x10
   949  0030                     	ds	1
   950  0031                     ??_calculateLux:
   951                           
   952                           ; 1 bytes @ 0x11
   953  0031                     	ds	1
   954  0032                     ??_calculateTemp:
   955                           
   956                           ; 1 bytes @ 0x12
   957  0032                     	ds	3
   958  0035                     calculateLux@lux:
   959                           
   960                           ; 4 bytes @ 0x15
   961  0035                     	ds	4
   962  0039                     calculateLux@ratio1:
   963                           
   964                           ; 4 bytes @ 0x19
   965  0039                     	ds	4
   966  003D                     calculateLux@temp:
   967                           
   968                           ; 4 bytes @ 0x1D
   969  003D                     	ds	4
   970  0041                     calculateLux@b:
   971                           
   972                           ; 2 bytes @ 0x21
   973  0041                     	ds	2
   974  0043                     calculateLux@m:
   975                           
   976                           ; 2 bytes @ 0x23
   977  0043                     	ds	2
   978  0045                     calculateLux@chScale:
   979                           
   980                           ; 4 bytes @ 0x25
   981  0045                     	ds	1
   982  0046                     calculateTemp@var1:
   983                           
   984                           ; 4 bytes @ 0x26
   985  0046                     	ds	3
   986  0049                     calculateLux@channel1:
   987                           
   988                           ; 4 bytes @ 0x29
   989  0049                     	ds	1
   990  004A                     calculateTemp@var2:
   991                           
   992                           ; 4 bytes @ 0x2A
   993  004A                     	ds	3
   994  004D                     calculateLux@channel0:
   995                           
   996                           ; 4 bytes @ 0x2D
   997  004D                     	ds	1
   998  004E                     calculateTemp@t_fine:
   999                           
  1000                           ; 4 bytes @ 0x2E
  1001  004E                     	ds	3
  1002  0051                     calculateLux@ratio:
  1003                           
  1004                           ; 4 bytes @ 0x31
  1005  0051                     	ds	1
  1006  0052                     _calculateTemp$1153:
  1007                           
  1008                           ; 4 bytes @ 0x32
  1009  0052                     	ds	4
  1010  0056                     calculateTemp@T:
  1011                           
  1012                           ; 2 bytes @ 0x36
  1013  0056                     	ds	2
  1014  0058                     ?___awdiv:
  1015  0058                     ___awdiv@divisor:	
  1016                           ; 2 bytes @ 0x38
  1017                           
  1018                           
  1019                           ; 2 bytes @ 0x38
  1020  0058                     	ds	2
  1021  005A                     ___awdiv@dividend:
  1022                           
  1023                           ; 2 bytes @ 0x3A
  1024  005A                     	ds	2
  1025  005C                     ??___awdiv:
  1026                           
  1027                           ; 1 bytes @ 0x3C
  1028  005C                     	ds	1
  1029  005D                     ___awdiv@counter:
  1030                           
  1031                           ; 1 bytes @ 0x3D
  1032  005D                     	ds	1
  1033  005E                     ___awdiv@sign:
  1034                           
  1035                           ; 1 bytes @ 0x3E
  1036  005E                     	ds	1
  1037  005F                     ___awdiv@quotient:
  1038                           
  1039                           ; 2 bytes @ 0x3F
  1040  005F                     	ds	2
  1041                           
  1042                           	psect	maintext
  1043  0027                     __pmaintext:	
  1044 ;;
  1045 ;;Main: autosize = 0, tempsize = 8, incstack = 0, save=0
  1046 ;;
  1047 ;; *************** function _main *****************
  1048 ;; Defined at:
  1049 ;;		line 127 in file "MASTER_Proyecto.c"
  1050 ;; Parameters:    Size  Location     Type
  1051 ;;		None
  1052 ;; Auto vars:     Size  Location     Type
  1053 ;;		None
  1054 ;; Return value:  Size  Location     Type
  1055 ;;                  1    wreg      void 
  1056 ;; Registers used:
  1057 ;;		wreg, fsr0l, fsr0h, status,2, status,0, btemp+1, pclath, cstack
  1058 ;; Tracked objects:
  1059 ;;		On entry : B00/0
  1060 ;;		On exit  : 0/0
  1061 ;;		Unchanged: 0/0
  1062 ;; Data sizes:     COMMON   BANK0   BANK1   BANK3   BANK2
  1063 ;;      Params:         0       0       0       0       0
  1064 ;;      Locals:         0       0       0       0       0
  1065 ;;      Temps:          0       0       8       0       0
  1066 ;;      Totals:         0       0       8       0       0
  1067 ;;Total ram usage:        8 bytes
  1068 ;; Hardware stack levels required when called: 5
  1069 ;; This function calls:
  1070 ;;		_I2C_Master_Read
  1071 ;;		_I2C_Master_RepeatedStart
  1072 ;;		_I2C_Master_Start
  1073 ;;		_I2C_Master_Stop
  1074 ;;		_I2C_Master_Write
  1075 ;;		___awdiv
  1076 ;;		_calculateLux
  1077 ;;		_calculateTemp
  1078 ;;		_setup
  1079 ;; This function is called by:
  1080 ;;		Startup code after reset
  1081 ;; This function uses a non-reentrant model
  1082 ;;
  1083                           
  1084  0027                     _main:	
  1085                           ;psect for function _main
  1086                           
  1087  0027                     l2623:	
  1088                           ;incstack = 0
  1089                           ; Regs used in _main: [wreg-fsr0h+status,2+status,0+btemp+1+pclath+cstack]
  1090                           
  1091                           
  1092                           ;MASTER_Proyecto.c: 128:     setup();
  1093  0027  120A  158A  2222  120A  118A  	fcall	_setup
  1094  002C                     l2625:
  1095                           
  1096                           ;MASTER_Proyecto.c: 132:         I2C_Master_Start();
  1097  002C  120A  158A  215B  120A  118A  	fcall	_I2C_Master_Start
  1098  0031                     l2627:
  1099                           
  1100                           ;MASTER_Proyecto.c: 133:         I2C_Master_Write(0x72);
  1101  0031  3072               	movlw	114
  1102  0032  00F3               	movwf	I2C_Master_Write@d
  1103  0033  3000               	movlw	0
  1104  0034  00F4               	movwf	I2C_Master_Write@d+1
  1105  0035  120A  158A  2164  120A  118A  	fcall	_I2C_Master_Write
  1106  003A                     l2629:
  1107                           
  1108                           ;MASTER_Proyecto.c: 134:         I2C_Master_Write(0x80);
  1109  003A  3080               	movlw	128
  1110  003B  00F3               	movwf	I2C_Master_Write@d
  1111  003C  3000               	movlw	0
  1112  003D  00F4               	movwf	I2C_Master_Write@d+1
  1113  003E  120A  158A  2164  120A  118A  	fcall	_I2C_Master_Write
  1114  0043                     l2631:
  1115                           
  1116                           ;MASTER_Proyecto.c: 135:         I2C_Master_Write(0x03);
  1117  0043  3003               	movlw	3
  1118  0044  00F3               	movwf	I2C_Master_Write@d
  1119  0045  3000               	movlw	0
  1120  0046  00F4               	movwf	I2C_Master_Write@d+1
  1121  0047  120A  158A  2164  120A  118A  	fcall	_I2C_Master_Write
  1122  004C                     l2633:
  1123                           
  1124                           ;MASTER_Proyecto.c: 136:         I2C_Master_Stop();
  1125  004C  120A  118A  27F7  120A  118A  	fcall	_I2C_Master_Stop
  1126  0051                     l2635:
  1127                           
  1128                           ;MASTER_Proyecto.c: 137:         _delay((unsigned long)((1)*(1000000/4000.0)));
  1129  0051  3052               	movlw	82
  1130  0052  1683               	bsf	3,5	;RP0=1, select bank1
  1131  0053  1303               	bcf	3,6	;RP1=0, select bank1
  1132  0054  00BB               	movwf	??_main^(0+128)
  1133  0055                     u2277:
  1134  0055  0BBB               	decfsz	??_main^(0+128),f
  1135  0056  2855               	goto	u2277
  1136  0057  0000               	nop
  1137  0058                     l2637:
  1138                           
  1139                           ;MASTER_Proyecto.c: 139:         I2C_Master_Start();
  1140  0058  120A  158A  215B  120A  118A  	fcall	_I2C_Master_Start
  1141  005D                     l2639:
  1142                           
  1143                           ;MASTER_Proyecto.c: 140:         I2C_Master_Write(0x72);
  1144  005D  3072               	movlw	114
  1145  005E  00F3               	movwf	I2C_Master_Write@d
  1146  005F  3000               	movlw	0
  1147  0060  00F4               	movwf	I2C_Master_Write@d+1
  1148  0061  120A  158A  2164  120A  118A  	fcall	_I2C_Master_Write
  1149  0066                     l2641:
  1150                           
  1151                           ;MASTER_Proyecto.c: 141:         I2C_Master_Write(0x81);
  1152  0066  3081               	movlw	129
  1153  0067  00F3               	movwf	I2C_Master_Write@d
  1154  0068  3000               	movlw	0
  1155  0069  00F4               	movwf	I2C_Master_Write@d+1
  1156  006A  120A  158A  2164  120A  118A  	fcall	_I2C_Master_Write
  1157  006F                     l2643:
  1158                           
  1159                           ;MASTER_Proyecto.c: 142:         I2C_Master_Write(0x00);
  1160  006F  3000               	movlw	0
  1161  0070  00F3               	movwf	I2C_Master_Write@d
  1162  0071  00F4               	movwf	I2C_Master_Write@d+1
  1163  0072  120A  158A  2164  120A  118A  	fcall	_I2C_Master_Write
  1164  0077                     l2645:
  1165                           
  1166                           ;MASTER_Proyecto.c: 143:         I2C_Master_Stop();
  1167  0077  120A  118A  27F7  120A  118A  	fcall	_I2C_Master_Stop
  1168  007C                     l2647:
  1169                           
  1170                           ;MASTER_Proyecto.c: 144:         _delay((unsigned long)((1)*(1000000/4000.0)));
  1171  007C  3052               	movlw	82
  1172  007D  1683               	bsf	3,5	;RP0=1, select bank1
  1173  007E  1303               	bcf	3,6	;RP1=0, select bank1
  1174  007F  00BB               	movwf	??_main^(0+128)
  1175  0080                     u2287:
  1176  0080  0BBB               	decfsz	??_main^(0+128),f
  1177  0081  2880               	goto	u2287
  1178  0082  0000               	nop
  1179  0083                     l2649:
  1180                           
  1181                           ;MASTER_Proyecto.c: 146:         I2C_Master_Start();
  1182  0083  120A  158A  215B  120A  118A  	fcall	_I2C_Master_Start
  1183  0088                     l2651:
  1184                           
  1185                           ;MASTER_Proyecto.c: 147:         I2C_Master_Write(0x72);
  1186  0088  3072               	movlw	114
  1187  0089  00F3               	movwf	I2C_Master_Write@d
  1188  008A  3000               	movlw	0
  1189  008B  00F4               	movwf	I2C_Master_Write@d+1
  1190  008C  120A  158A  2164  120A  118A  	fcall	_I2C_Master_Write
  1191  0091                     l2653:
  1192                           
  1193                           ;MASTER_Proyecto.c: 148:         I2C_Master_Write(0x8C);
  1194  0091  308C               	movlw	140
  1195  0092  00F3               	movwf	I2C_Master_Write@d
  1196  0093  3000               	movlw	0
  1197  0094  00F4               	movwf	I2C_Master_Write@d+1
  1198  0095  120A  158A  2164  120A  118A  	fcall	_I2C_Master_Write
  1199  009A                     l2655:
  1200                           
  1201                           ;MASTER_Proyecto.c: 149:         I2C_Master_RepeatedStart();
  1202  009A  120A  158A  2152  120A  118A  	fcall	_I2C_Master_RepeatedStart
  1203  009F                     l2657:
  1204                           
  1205                           ;MASTER_Proyecto.c: 150:         I2C_Master_Write(0x73);
  1206  009F  3073               	movlw	115
  1207  00A0  00F3               	movwf	I2C_Master_Write@d
  1208  00A1  3000               	movlw	0
  1209  00A2  00F4               	movwf	I2C_Master_Write@d+1
  1210  00A3  120A  158A  2164  120A  118A  	fcall	_I2C_Master_Write
  1211  00A8                     l2659:
  1212                           
  1213                           ;MASTER_Proyecto.c: 151:         low0 = I2C_Master_Read(0);
  1214  00A8  3000               	movlw	0
  1215  00A9  00F3               	movwf	I2C_Master_Read@a
  1216  00AA  00F4               	movwf	I2C_Master_Read@a+1
  1217  00AB  120A  158A  2185  120A  118A  	fcall	_I2C_Master_Read
  1218  00B0  0873               	movf	?_I2C_Master_Read,w
  1219  00B1  1683               	bsf	3,5	;RP0=1, select bank1
  1220  00B2  1303               	bcf	3,6	;RP1=0, select bank1
  1221  00B3  00BB               	movwf	??_main^(0+128)
  1222  00B4  083B               	movf	??_main^(0+128),w
  1223  00B5  1283               	bcf	3,5	;RP0=0, select bank0
  1224  00B6  1303               	bcf	3,6	;RP1=0, select bank0
  1225  00B7  00E9               	movwf	_low0
  1226  00B8                     l2661:
  1227                           
  1228                           ;MASTER_Proyecto.c: 152:         I2C_Master_Stop();
  1229  00B8  120A  118A  27F7  120A  118A  	fcall	_I2C_Master_Stop
  1230  00BD                     l2663:
  1231                           
  1232                           ;MASTER_Proyecto.c: 153:         _delay((unsigned long)((1)*(1000000/4000.0)));
  1233  00BD  3052               	movlw	82
  1234  00BE  1683               	bsf	3,5	;RP0=1, select bank1
  1235  00BF  1303               	bcf	3,6	;RP1=0, select bank1
  1236  00C0  00BB               	movwf	??_main^(0+128)
  1237  00C1                     u2297:
  1238  00C1  0BBB               	decfsz	??_main^(0+128),f
  1239  00C2  28C1               	goto	u2297
  1240  00C3  0000               	nop
  1241  00C4                     l2665:
  1242                           
  1243                           ;MASTER_Proyecto.c: 155:         I2C_Master_Start();
  1244  00C4  120A  158A  215B  120A  118A  	fcall	_I2C_Master_Start
  1245  00C9                     l2667:
  1246                           
  1247                           ;MASTER_Proyecto.c: 156:         I2C_Master_Write(0x72);
  1248  00C9  3072               	movlw	114
  1249  00CA  00F3               	movwf	I2C_Master_Write@d
  1250  00CB  3000               	movlw	0
  1251  00CC  00F4               	movwf	I2C_Master_Write@d+1
  1252  00CD  120A  158A  2164  120A  118A  	fcall	_I2C_Master_Write
  1253  00D2                     l2669:
  1254                           
  1255                           ;MASTER_Proyecto.c: 157:         I2C_Master_Write(0x8D);
  1256  00D2  308D               	movlw	141
  1257  00D3  00F3               	movwf	I2C_Master_Write@d
  1258  00D4  3000               	movlw	0
  1259  00D5  00F4               	movwf	I2C_Master_Write@d+1
  1260  00D6  120A  158A  2164  120A  118A  	fcall	_I2C_Master_Write
  1261  00DB                     l2671:
  1262                           
  1263                           ;MASTER_Proyecto.c: 158:         I2C_Master_RepeatedStart();
  1264  00DB  120A  158A  2152  120A  118A  	fcall	_I2C_Master_RepeatedStart
  1265  00E0                     l2673:
  1266                           
  1267                           ;MASTER_Proyecto.c: 159:         I2C_Master_Write(0x73);
  1268  00E0  3073               	movlw	115
  1269  00E1  00F3               	movwf	I2C_Master_Write@d
  1270  00E2  3000               	movlw	0
  1271  00E3  00F4               	movwf	I2C_Master_Write@d+1
  1272  00E4  120A  158A  2164  120A  118A  	fcall	_I2C_Master_Write
  1273  00E9                     l2675:
  1274                           
  1275                           ;MASTER_Proyecto.c: 160:         high0 = I2C_Master_Read(0);
  1276  00E9  3000               	movlw	0
  1277  00EA  00F3               	movwf	I2C_Master_Read@a
  1278  00EB  00F4               	movwf	I2C_Master_Read@a+1
  1279  00EC  120A  158A  2185  120A  118A  	fcall	_I2C_Master_Read
  1280  00F1  0873               	movf	?_I2C_Master_Read,w
  1281  00F2  1683               	bsf	3,5	;RP0=1, select bank1
  1282  00F3  1303               	bcf	3,6	;RP1=0, select bank1
  1283  00F4  00BB               	movwf	??_main^(0+128)
  1284  00F5  083B               	movf	??_main^(0+128),w
  1285  00F6  1283               	bcf	3,5	;RP0=0, select bank0
  1286  00F7  1303               	bcf	3,6	;RP1=0, select bank0
  1287  00F8  00EA               	movwf	_high0
  1288  00F9                     l2677:
  1289                           
  1290                           ;MASTER_Proyecto.c: 161:         I2C_Master_Stop();
  1291  00F9  120A  118A  27F7  120A  118A  	fcall	_I2C_Master_Stop
  1292  00FE                     l2679:
  1293                           
  1294                           ;MASTER_Proyecto.c: 162:         _delay((unsigned long)((1)*(1000000/4000.0)));
  1295  00FE  3052               	movlw	82
  1296  00FF  1683               	bsf	3,5	;RP0=1, select bank1
  1297  0100  1303               	bcf	3,6	;RP1=0, select bank1
  1298  0101  00BB               	movwf	??_main^(0+128)
  1299  0102                     u2307:
  1300  0102  0BBB               	decfsz	??_main^(0+128),f
  1301  0103  2902               	goto	u2307
  1302  0104  0000               	nop
  1303  0105                     l2681:
  1304                           
  1305                           ;MASTER_Proyecto.c: 164:         I2C_Master_Start();
  1306  0105  120A  158A  215B  120A  118A  	fcall	_I2C_Master_Start
  1307  010A                     l2683:
  1308                           
  1309                           ;MASTER_Proyecto.c: 165:         I2C_Master_Write(0x72);
  1310  010A  3072               	movlw	114
  1311  010B  00F3               	movwf	I2C_Master_Write@d
  1312  010C  3000               	movlw	0
  1313  010D  00F4               	movwf	I2C_Master_Write@d+1
  1314  010E  120A  158A  2164  120A  118A  	fcall	_I2C_Master_Write
  1315  0113                     l2685:
  1316                           
  1317                           ;MASTER_Proyecto.c: 166:         I2C_Master_Write(0x8E);
  1318  0113  308E               	movlw	142
  1319  0114  00F3               	movwf	I2C_Master_Write@d
  1320  0115  3000               	movlw	0
  1321  0116  00F4               	movwf	I2C_Master_Write@d+1
  1322  0117  120A  158A  2164  120A  118A  	fcall	_I2C_Master_Write
  1323  011C                     l2687:
  1324                           
  1325                           ;MASTER_Proyecto.c: 167:         I2C_Master_RepeatedStart();
  1326  011C  120A  158A  2152  120A  118A  	fcall	_I2C_Master_RepeatedStart
  1327  0121                     l2689:
  1328                           
  1329                           ;MASTER_Proyecto.c: 168:         I2C_Master_Write(0x73);
  1330  0121  3073               	movlw	115
  1331  0122  00F3               	movwf	I2C_Master_Write@d
  1332  0123  3000               	movlw	0
  1333  0124  00F4               	movwf	I2C_Master_Write@d+1
  1334  0125  120A  158A  2164  120A  118A  	fcall	_I2C_Master_Write
  1335  012A                     l2691:
  1336                           
  1337                           ;MASTER_Proyecto.c: 169:         low1 = I2C_Master_Read(0);
  1338  012A  3000               	movlw	0
  1339  012B  00F3               	movwf	I2C_Master_Read@a
  1340  012C  00F4               	movwf	I2C_Master_Read@a+1
  1341  012D  120A  158A  2185  120A  118A  	fcall	_I2C_Master_Read
  1342  0132  0873               	movf	?_I2C_Master_Read,w
  1343  0133  1683               	bsf	3,5	;RP0=1, select bank1
  1344  0134  1303               	bcf	3,6	;RP1=0, select bank1
  1345  0135  00BB               	movwf	??_main^(0+128)
  1346  0136  083B               	movf	??_main^(0+128),w
  1347  0137  1283               	bcf	3,5	;RP0=0, select bank0
  1348  0138  1303               	bcf	3,6	;RP1=0, select bank0
  1349  0139  00E7               	movwf	_low1
  1350  013A                     l2693:
  1351                           
  1352                           ;MASTER_Proyecto.c: 170:         I2C_Master_Stop();
  1353  013A  120A  118A  27F7  120A  118A  	fcall	_I2C_Master_Stop
  1354  013F                     l2695:
  1355                           
  1356                           ;MASTER_Proyecto.c: 171:         _delay((unsigned long)((1)*(1000000/4000.0)));
  1357  013F  3052               	movlw	82
  1358  0140  1683               	bsf	3,5	;RP0=1, select bank1
  1359  0141  1303               	bcf	3,6	;RP1=0, select bank1
  1360  0142  00BB               	movwf	??_main^(0+128)
  1361  0143                     u2317:
  1362  0143  0BBB               	decfsz	??_main^(0+128),f
  1363  0144  2943               	goto	u2317
  1364  0145  0000               	nop
  1365  0146                     l2697:
  1366                           
  1367                           ;MASTER_Proyecto.c: 173:         I2C_Master_Start();
  1368  0146  120A  158A  215B  120A  118A  	fcall	_I2C_Master_Start
  1369  014B                     l2699:
  1370                           
  1371                           ;MASTER_Proyecto.c: 174:         I2C_Master_Write(0x72);
  1372  014B  3072               	movlw	114
  1373  014C  00F3               	movwf	I2C_Master_Write@d
  1374  014D  3000               	movlw	0
  1375  014E  00F4               	movwf	I2C_Master_Write@d+1
  1376  014F  120A  158A  2164  120A  118A  	fcall	_I2C_Master_Write
  1377  0154                     l2701:
  1378                           
  1379                           ;MASTER_Proyecto.c: 175:         I2C_Master_Write(0x8F);
  1380  0154  308F               	movlw	143
  1381  0155  00F3               	movwf	I2C_Master_Write@d
  1382  0156  3000               	movlw	0
  1383  0157  00F4               	movwf	I2C_Master_Write@d+1
  1384  0158  120A  158A  2164  120A  118A  	fcall	_I2C_Master_Write
  1385  015D                     l2703:
  1386                           
  1387                           ;MASTER_Proyecto.c: 176:         I2C_Master_RepeatedStart();
  1388  015D  120A  158A  2152  120A  118A  	fcall	_I2C_Master_RepeatedStart
  1389  0162                     l2705:
  1390                           
  1391                           ;MASTER_Proyecto.c: 177:         I2C_Master_Write(0x73);
  1392  0162  3073               	movlw	115
  1393  0163  00F3               	movwf	I2C_Master_Write@d
  1394  0164  3000               	movlw	0
  1395  0165  00F4               	movwf	I2C_Master_Write@d+1
  1396  0166  120A  158A  2164  120A  118A  	fcall	_I2C_Master_Write
  1397  016B                     l2707:
  1398                           
  1399                           ;MASTER_Proyecto.c: 178:         high1 = I2C_Master_Read(0);
  1400  016B  3000               	movlw	0
  1401  016C  00F3               	movwf	I2C_Master_Read@a
  1402  016D  00F4               	movwf	I2C_Master_Read@a+1
  1403  016E  120A  158A  2185  120A  118A  	fcall	_I2C_Master_Read
  1404  0173  0873               	movf	?_I2C_Master_Read,w
  1405  0174  1683               	bsf	3,5	;RP0=1, select bank1
  1406  0175  1303               	bcf	3,6	;RP1=0, select bank1
  1407  0176  00BB               	movwf	??_main^(0+128)
  1408  0177  083B               	movf	??_main^(0+128),w
  1409  0178  1283               	bcf	3,5	;RP0=0, select bank0
  1410  0179  1303               	bcf	3,6	;RP1=0, select bank0
  1411  017A  00E8               	movwf	_high1
  1412  017B                     l2709:
  1413                           
  1414                           ;MASTER_Proyecto.c: 179:         I2C_Master_Stop();
  1415  017B  120A  118A  27F7  120A  118A  	fcall	_I2C_Master_Stop
  1416  0180                     l2711:
  1417                           
  1418                           ;MASTER_Proyecto.c: 180:         _delay((unsigned long)((1)*(1000000/4000.0)));
  1419  0180  3052               	movlw	82
  1420  0181  1683               	bsf	3,5	;RP0=1, select bank1
  1421  0182  1303               	bcf	3,6	;RP1=0, select bank1
  1422  0183  00BB               	movwf	??_main^(0+128)
  1423  0184                     u2327:
  1424  0184  0BBB               	decfsz	??_main^(0+128),f
  1425  0185  2984               	goto	u2327
  1426  0186  0000               	nop
  1427  0187                     l2713:
  1428                           
  1429                           ;MASTER_Proyecto.c: 183:         channel0 = (high0<<8)|low0;
  1430  0187  1283               	bcf	3,5	;RP0=0, select bank0
  1431  0188  1303               	bcf	3,6	;RP1=0, select bank0
  1432  0189  0869               	movf	_low0,w
  1433  018A  1683               	bsf	3,5	;RP0=1, select bank1
  1434  018B  1303               	bcf	3,6	;RP1=0, select bank1
  1435  018C  00BB               	movwf	??_main^(0+128)
  1436  018D  01BC               	clrf	(??_main^(0+128)+1)
  1437  018E  1283               	bcf	3,5	;RP0=0, select bank0
  1438  018F  1303               	bcf	3,6	;RP1=0, select bank0
  1439  0190  086A               	movf	_high0,w
  1440  0191  1683               	bsf	3,5	;RP0=1, select bank1
  1441  0192  1303               	bcf	3,6	;RP1=0, select bank1
  1442  0193  00BD               	movwf	(??_main+2)^(0+128)
  1443  0194  01BE               	clrf	((??_main+2)^(0+128)+1)
  1444  0195  083D               	movf	(??_main+2)^(0+128),w
  1445  0196  00BE               	movwf	((??_main+2)^(0+128)+1)
  1446  0197  01BD               	clrf	(??_main+2)^(0+128)
  1447  0198  083B               	movf	??_main^(0+128),w
  1448  0199  043D               	iorwf	(??_main+2)^(0+128),w
  1449  019A  00AC               	movwf	_channel0^(0+128)
  1450  019B  083C               	movf	(??_main+1)^(0+128),w
  1451  019C  043E               	iorwf	(??_main+3)^(0+128),w
  1452  019D  00AD               	movwf	(_channel0+1)^(0+128)
  1453  019E                     l2715:
  1454                           
  1455                           ;MASTER_Proyecto.c: 184:         channel1 = (high1<<8)|low1;
  1456  019E  1283               	bcf	3,5	;RP0=0, select bank0
  1457  019F  1303               	bcf	3,6	;RP1=0, select bank0
  1458  01A0  0867               	movf	_low1,w
  1459  01A1  1683               	bsf	3,5	;RP0=1, select bank1
  1460  01A2  1303               	bcf	3,6	;RP1=0, select bank1
  1461  01A3  00BB               	movwf	??_main^(0+128)
  1462  01A4  01BC               	clrf	(??_main^(0+128)+1)
  1463  01A5  1283               	bcf	3,5	;RP0=0, select bank0
  1464  01A6  1303               	bcf	3,6	;RP1=0, select bank0
  1465  01A7  0868               	movf	_high1,w
  1466  01A8  1683               	bsf	3,5	;RP0=1, select bank1
  1467  01A9  1303               	bcf	3,6	;RP1=0, select bank1
  1468  01AA  00BD               	movwf	(??_main+2)^(0+128)
  1469  01AB  01BE               	clrf	((??_main+2)^(0+128)+1)
  1470  01AC  083D               	movf	(??_main+2)^(0+128),w
  1471  01AD  00BE               	movwf	((??_main+2)^(0+128)+1)
  1472  01AE  01BD               	clrf	(??_main+2)^(0+128)
  1473  01AF  083B               	movf	??_main^(0+128),w
  1474  01B0  043D               	iorwf	(??_main+2)^(0+128),w
  1475  01B1  00AA               	movwf	_channel1^(0+128)
  1476  01B2  083C               	movf	(??_main+1)^(0+128),w
  1477  01B3  043E               	iorwf	(??_main+3)^(0+128),w
  1478  01B4  00AB               	movwf	(_channel1+1)^(0+128)
  1479  01B5                     l2717:
  1480                           
  1481                           ;MASTER_Proyecto.c: 186:         lux = calculateLux(channel0,channel1);
  1482  01B5  082D               	movf	(_channel0+1)^(0+128),w
  1483  01B6  1283               	bcf	3,5	;RP0=0, select bank0
  1484  01B7  1303               	bcf	3,6	;RP1=0, select bank0
  1485  01B8  00AE               	movwf	calculateLux@broadband+1
  1486  01B9  1683               	bsf	3,5	;RP0=1, select bank1
  1487  01BA  1303               	bcf	3,6	;RP1=0, select bank1
  1488  01BB  082C               	movf	_channel0^(0+128),w
  1489  01BC  1283               	bcf	3,5	;RP0=0, select bank0
  1490  01BD  1303               	bcf	3,6	;RP1=0, select bank0
  1491  01BE  00AD               	movwf	calculateLux@broadband
  1492  01BF  1683               	bsf	3,5	;RP0=1, select bank1
  1493  01C0  1303               	bcf	3,6	;RP1=0, select bank1
  1494  01C1  082B               	movf	(_channel1+1)^(0+128),w
  1495  01C2  1283               	bcf	3,5	;RP0=0, select bank0
  1496  01C3  1303               	bcf	3,6	;RP1=0, select bank0
  1497  01C4  00B0               	movwf	calculateLux@ir+1
  1498  01C5  1683               	bsf	3,5	;RP0=1, select bank1
  1499  01C6  1303               	bcf	3,6	;RP1=0, select bank1
  1500  01C7  082A               	movf	_channel1^(0+128),w
  1501  01C8  1283               	bcf	3,5	;RP0=0, select bank0
  1502  01C9  1303               	bcf	3,6	;RP1=0, select bank0
  1503  01CA  00AF               	movwf	calculateLux@ir
  1504  01CB  120A  158A  2562  120A  118A  	fcall	_calculateLux
  1505  01D0  1283               	bcf	3,5	;RP0=0, select bank0
  1506  01D1  1303               	bcf	3,6	;RP1=0, select bank0
  1507  01D2  0830               	movf	?_calculateLux+3,w
  1508  01D3  1683               	bsf	3,5	;RP0=1, select bank1
  1509  01D4  1303               	bcf	3,6	;RP1=0, select bank1
  1510  01D5  00A3               	movwf	(_lux+3)^(0+128)
  1511  01D6  1283               	bcf	3,5	;RP0=0, select bank0
  1512  01D7  1303               	bcf	3,6	;RP1=0, select bank0
  1513  01D8  082F               	movf	?_calculateLux+2,w
  1514  01D9  1683               	bsf	3,5	;RP0=1, select bank1
  1515  01DA  1303               	bcf	3,6	;RP1=0, select bank1
  1516  01DB  00A2               	movwf	(_lux+2)^(0+128)
  1517  01DC  1283               	bcf	3,5	;RP0=0, select bank0
  1518  01DD  1303               	bcf	3,6	;RP1=0, select bank0
  1519  01DE  082E               	movf	?_calculateLux+1,w
  1520  01DF  1683               	bsf	3,5	;RP0=1, select bank1
  1521  01E0  1303               	bcf	3,6	;RP1=0, select bank1
  1522  01E1  00A1               	movwf	(_lux+1)^(0+128)
  1523  01E2  1283               	bcf	3,5	;RP0=0, select bank0
  1524  01E3  1303               	bcf	3,6	;RP1=0, select bank0
  1525  01E4  082D               	movf	?_calculateLux,w
  1526  01E5  1683               	bsf	3,5	;RP0=1, select bank1
  1527  01E6  1303               	bcf	3,6	;RP1=0, select bank1
  1528  01E7  00A0               	movwf	_lux^(0+128)
  1529  01E8                     l2719:
  1530                           
  1531                           ;MASTER_Proyecto.c: 188:         data4 = (uint8_t)(lux);
  1532  01E8  0820               	movf	_lux^(0+128),w
  1533  01E9  00BB               	movwf	??_main^(0+128)
  1534  01EA  083B               	movf	??_main^(0+128),w
  1535  01EB  00F8               	movwf	_data4
  1536  01EC                     l2721:
  1537                           
  1538                           ;MASTER_Proyecto.c: 189:         data3 = (uint8_t)(lux>>8);
  1539  01EC  0820               	movf	_lux^(0+128),w
  1540  01ED  00BB               	movwf	??_main^(0+128)
  1541  01EE  0821               	movf	(_lux+1)^(0+128),w
  1542  01EF  00BC               	movwf	(??_main^(0+128)+1)
  1543  01F0  0822               	movf	(_lux+2)^(0+128),w
  1544  01F1  00BD               	movwf	(??_main^(0+128)+2)
  1545  01F2  0823               	movf	(_lux+3)^(0+128),w
  1546  01F3  00BE               	movwf	(??_main^(0+128)+3)
  1547  01F4  3008               	movlw	8
  1548  01F5                     u2135:
  1549  01F5  1003               	clrc
  1550  01F6  0CBE               	rrf	(??_main^(0+128)+3),f
  1551  01F7  0CBD               	rrf	(??_main^(0+128)+2),f
  1552  01F8  0CBC               	rrf	(??_main^(0+128)+1),f
  1553  01F9  0CBB               	rrf	??_main^(0+128),f
  1554  01FA                     u2130:
  1555  01FA  3EFF               	addlw	-1
  1556  01FB  1D03               	skipz
  1557  01FC  29F5               	goto	u2135
  1558  01FD  083B               	movf	??_main^(0+128),w
  1559  01FE  00BF               	movwf	(??_main+4)^(0+128)
  1560  01FF  083F               	movf	(??_main+4)^(0+128),w
  1561  0200  00F9               	movwf	_data3
  1562  0201                     l2723:
  1563                           
  1564                           ;MASTER_Proyecto.c: 190:         data2 = (uint8_t)(lux>>16);
  1565  0201  0820               	movf	_lux^(0+128),w
  1566  0202  00BB               	movwf	??_main^(0+128)
  1567  0203  0821               	movf	(_lux+1)^(0+128),w
  1568  0204  00BC               	movwf	(??_main^(0+128)+1)
  1569  0205  0822               	movf	(_lux+2)^(0+128),w
  1570  0206  00BD               	movwf	(??_main^(0+128)+2)
  1571  0207  0823               	movf	(_lux+3)^(0+128),w
  1572  0208  00BE               	movwf	(??_main^(0+128)+3)
  1573  0209  3010               	movlw	16
  1574  020A                     u2145:
  1575  020A  1003               	clrc
  1576  020B  0CBE               	rrf	(??_main^(0+128)+3),f
  1577  020C  0CBD               	rrf	(??_main^(0+128)+2),f
  1578  020D  0CBC               	rrf	(??_main^(0+128)+1),f
  1579  020E  0CBB               	rrf	??_main^(0+128),f
  1580  020F                     u2140:
  1581  020F  3EFF               	addlw	-1
  1582  0210  1D03               	skipz
  1583  0211  2A0A               	goto	u2145
  1584  0212  083B               	movf	??_main^(0+128),w
  1585  0213  00BF               	movwf	(??_main+4)^(0+128)
  1586  0214  083F               	movf	(??_main+4)^(0+128),w
  1587  0215  00FA               	movwf	_data2
  1588  0216                     l2725:
  1589                           
  1590                           ;MASTER_Proyecto.c: 191:         data1 = (uint8_t)(lux>>24);
  1591  0216  0820               	movf	_lux^(0+128),w
  1592  0217  00BB               	movwf	??_main^(0+128)
  1593  0218  0821               	movf	(_lux+1)^(0+128),w
  1594  0219  00BC               	movwf	(??_main^(0+128)+1)
  1595  021A  0822               	movf	(_lux+2)^(0+128),w
  1596  021B  00BD               	movwf	(??_main^(0+128)+2)
  1597  021C  0823               	movf	(_lux+3)^(0+128),w
  1598  021D  00BE               	movwf	(??_main^(0+128)+3)
  1599  021E  3018               	movlw	24
  1600  021F                     u2155:
  1601  021F  1003               	clrc
  1602  0220  0CBE               	rrf	(??_main^(0+128)+3),f
  1603  0221  0CBD               	rrf	(??_main^(0+128)+2),f
  1604  0222  0CBC               	rrf	(??_main^(0+128)+1),f
  1605  0223  0CBB               	rrf	??_main^(0+128),f
  1606  0224                     u2150:
  1607  0224  3EFF               	addlw	-1
  1608  0225  1D03               	skipz
  1609  0226  2A1F               	goto	u2155
  1610  0227  083B               	movf	??_main^(0+128),w
  1611  0228  00BF               	movwf	(??_main+4)^(0+128)
  1612  0229  083F               	movf	(??_main+4)^(0+128),w
  1613  022A  1283               	bcf	3,5	;RP0=0, select bank0
  1614  022B  1303               	bcf	3,6	;RP1=0, select bank0
  1615  022C  00E6               	movwf	_data1
  1616  022D                     l2727:
  1617                           
  1618                           ;MASTER_Proyecto.c: 195:         I2C_Master_Start();
  1619  022D  120A  158A  215B  120A  118A  	fcall	_I2C_Master_Start
  1620  0232                     l2729:
  1621                           
  1622                           ;MASTER_Proyecto.c: 196:         I2C_Master_Write(0xEE);
  1623  0232  30EE               	movlw	238
  1624  0233  00F3               	movwf	I2C_Master_Write@d
  1625  0234  3000               	movlw	0
  1626  0235  00F4               	movwf	I2C_Master_Write@d+1
  1627  0236  120A  158A  2164  120A  118A  	fcall	_I2C_Master_Write
  1628  023B                     l2731:
  1629                           
  1630                           ;MASTER_Proyecto.c: 197:         I2C_Master_Write(0xF4);
  1631  023B  30F4               	movlw	244
  1632  023C  00F3               	movwf	I2C_Master_Write@d
  1633  023D  3000               	movlw	0
  1634  023E  00F4               	movwf	I2C_Master_Write@d+1
  1635  023F  120A  158A  2164  120A  118A  	fcall	_I2C_Master_Write
  1636  0244                     l2733:
  1637                           
  1638                           ;MASTER_Proyecto.c: 198:         I2C_Master_Write(0x57);
  1639  0244  3057               	movlw	87
  1640  0245  00F3               	movwf	I2C_Master_Write@d
  1641  0246  3000               	movlw	0
  1642  0247  00F4               	movwf	I2C_Master_Write@d+1
  1643  0248  120A  158A  2164  120A  118A  	fcall	_I2C_Master_Write
  1644  024D                     l2735:
  1645                           
  1646                           ;MASTER_Proyecto.c: 199:         I2C_Master_Stop();
  1647  024D  120A  118A  27F7  120A  118A  	fcall	_I2C_Master_Stop
  1648  0252                     l2737:
  1649                           
  1650                           ;MASTER_Proyecto.c: 200:         _delay((unsigned long)((1)*(1000000/4000.0)));
  1651  0252  3052               	movlw	82
  1652  0253  1683               	bsf	3,5	;RP0=1, select bank1
  1653  0254  1303               	bcf	3,6	;RP1=0, select bank1
  1654  0255  00BB               	movwf	??_main^(0+128)
  1655  0256                     u2337:
  1656  0256  0BBB               	decfsz	??_main^(0+128),f
  1657  0257  2A56               	goto	u2337
  1658  0258  0000               	nop
  1659  0259                     l2739:
  1660                           
  1661                           ;MASTER_Proyecto.c: 202:         I2C_Master_Start();
  1662  0259  120A  158A  215B  120A  118A  	fcall	_I2C_Master_Start
  1663  025E                     l2741:
  1664                           
  1665                           ;MASTER_Proyecto.c: 203:         I2C_Master_Write(0xEE);
  1666  025E  30EE               	movlw	238
  1667  025F  00F3               	movwf	I2C_Master_Write@d
  1668  0260  3000               	movlw	0
  1669  0261  00F4               	movwf	I2C_Master_Write@d+1
  1670  0262  120A  158A  2164  120A  118A  	fcall	_I2C_Master_Write
  1671  0267                     l2743:
  1672                           
  1673                           ;MASTER_Proyecto.c: 204:         I2C_Master_Write(0xF5);
  1674  0267  30F5               	movlw	245
  1675  0268  00F3               	movwf	I2C_Master_Write@d
  1676  0269  3000               	movlw	0
  1677  026A  00F4               	movwf	I2C_Master_Write@d+1
  1678  026B  120A  158A  2164  120A  118A  	fcall	_I2C_Master_Write
  1679  0270                     l2745:
  1680                           
  1681                           ;MASTER_Proyecto.c: 205:         I2C_Master_Write(0x90);
  1682  0270  3090               	movlw	144
  1683  0271  00F3               	movwf	I2C_Master_Write@d
  1684  0272  3000               	movlw	0
  1685  0273  00F4               	movwf	I2C_Master_Write@d+1
  1686  0274  120A  158A  2164  120A  118A  	fcall	_I2C_Master_Write
  1687  0279                     l2747:
  1688                           
  1689                           ;MASTER_Proyecto.c: 206:         I2C_Master_Stop();
  1690  0279  120A  118A  27F7  120A  118A  	fcall	_I2C_Master_Stop
  1691  027E                     l2749:
  1692                           
  1693                           ;MASTER_Proyecto.c: 207:         _delay((unsigned long)((1)*(1000000/4000.0)));
  1694  027E  3052               	movlw	82
  1695  027F  1683               	bsf	3,5	;RP0=1, select bank1
  1696  0280  1303               	bcf	3,6	;RP1=0, select bank1
  1697  0281  00BB               	movwf	??_main^(0+128)
  1698  0282                     u2347:
  1699  0282  0BBB               	decfsz	??_main^(0+128),f
  1700  0283  2A82               	goto	u2347
  1701  0284  0000               	nop
  1702  0285                     l2751:
  1703                           
  1704                           ;MASTER_Proyecto.c: 209:         I2C_Master_Start();
  1705  0285  120A  158A  215B  120A  118A  	fcall	_I2C_Master_Start
  1706  028A                     l2753:
  1707                           
  1708                           ;MASTER_Proyecto.c: 210:         I2C_Master_Write(0xEE);
  1709  028A  30EE               	movlw	238
  1710  028B  00F3               	movwf	I2C_Master_Write@d
  1711  028C  3000               	movlw	0
  1712  028D  00F4               	movwf	I2C_Master_Write@d+1
  1713  028E  120A  158A  2164  120A  118A  	fcall	_I2C_Master_Write
  1714  0293                     l2755:
  1715                           
  1716                           ;MASTER_Proyecto.c: 211:         I2C_Master_Write(0xFA);
  1717  0293  30FA               	movlw	250
  1718  0294  00F3               	movwf	I2C_Master_Write@d
  1719  0295  3000               	movlw	0
  1720  0296  00F4               	movwf	I2C_Master_Write@d+1
  1721  0297  120A  158A  2164  120A  118A  	fcall	_I2C_Master_Write
  1722  029C                     l2757:
  1723                           
  1724                           ;MASTER_Proyecto.c: 212:         I2C_Master_RepeatedStart();
  1725  029C  120A  158A  2152  120A  118A  	fcall	_I2C_Master_RepeatedStart
  1726  02A1                     l2759:
  1727                           
  1728                           ;MASTER_Proyecto.c: 213:         I2C_Master_Write(0xEF);
  1729  02A1  30EF               	movlw	239
  1730  02A2  00F3               	movwf	I2C_Master_Write@d
  1731  02A3  3000               	movlw	0
  1732  02A4  00F4               	movwf	I2C_Master_Write@d+1
  1733  02A5  120A  158A  2164  120A  118A  	fcall	_I2C_Master_Write
  1734  02AA                     l2761:
  1735                           
  1736                           ;MASTER_Proyecto.c: 214:         temp1 = I2C_Master_Read(0);
  1737  02AA  3000               	movlw	0
  1738  02AB  00F3               	movwf	I2C_Master_Read@a
  1739  02AC  00F4               	movwf	I2C_Master_Read@a+1
  1740  02AD  120A  158A  2185  120A  118A  	fcall	_I2C_Master_Read
  1741  02B2  0873               	movf	?_I2C_Master_Read,w
  1742  02B3  1683               	bsf	3,5	;RP0=1, select bank1
  1743  02B4  1303               	bcf	3,6	;RP1=0, select bank1
  1744  02B5  00BB               	movwf	??_main^(0+128)
  1745  02B6  083B               	movf	??_main^(0+128),w
  1746  02B7  00BA               	movwf	_temp1^(0+128)
  1747  02B8                     l2763:
  1748                           
  1749                           ;MASTER_Proyecto.c: 215:         I2C_Master_Read(0);
  1750  02B8  3000               	movlw	0
  1751  02B9  00F3               	movwf	I2C_Master_Read@a
  1752  02BA  00F4               	movwf	I2C_Master_Read@a+1
  1753  02BB  120A  158A  2185  120A  118A  	fcall	_I2C_Master_Read
  1754  02C0                     l2765:
  1755                           
  1756                           ;MASTER_Proyecto.c: 216:         I2C_Master_Stop();
  1757  02C0  120A  118A  27F7  120A  118A  	fcall	_I2C_Master_Stop
  1758  02C5                     l2767:
  1759                           
  1760                           ;MASTER_Proyecto.c: 217:         _delay((unsigned long)((1)*(1000000/4000.0)));
  1761  02C5  3052               	movlw	82
  1762  02C6  1683               	bsf	3,5	;RP0=1, select bank1
  1763  02C7  1303               	bcf	3,6	;RP1=0, select bank1
  1764  02C8  00BB               	movwf	??_main^(0+128)
  1765  02C9                     u2357:
  1766  02C9  0BBB               	decfsz	??_main^(0+128),f
  1767  02CA  2AC9               	goto	u2357
  1768  02CB  0000               	nop
  1769  02CC                     l2769:
  1770                           
  1771                           ;MASTER_Proyecto.c: 219:         I2C_Master_Start();
  1772  02CC  120A  158A  215B  120A  118A  	fcall	_I2C_Master_Start
  1773  02D1                     l2771:
  1774                           
  1775                           ;MASTER_Proyecto.c: 220:         I2C_Master_Write(0xEE);
  1776  02D1  30EE               	movlw	238
  1777  02D2  00F3               	movwf	I2C_Master_Write@d
  1778  02D3  3000               	movlw	0
  1779  02D4  00F4               	movwf	I2C_Master_Write@d+1
  1780  02D5  120A  158A  2164  120A  118A  	fcall	_I2C_Master_Write
  1781  02DA                     l2773:
  1782                           
  1783                           ;MASTER_Proyecto.c: 221:         I2C_Master_Write(0xFB);
  1784  02DA  30FB               	movlw	251
  1785  02DB  00F3               	movwf	I2C_Master_Write@d
  1786  02DC  3000               	movlw	0
  1787  02DD  00F4               	movwf	I2C_Master_Write@d+1
  1788  02DE  120A  158A  2164  120A  118A  	fcall	_I2C_Master_Write
  1789  02E3                     l2775:
  1790                           
  1791                           ;MASTER_Proyecto.c: 222:         I2C_Master_RepeatedStart();
  1792  02E3  120A  158A  2152  120A  118A  	fcall	_I2C_Master_RepeatedStart
  1793  02E8                     l2777:
  1794                           
  1795                           ;MASTER_Proyecto.c: 223:         I2C_Master_Write(0xEF);
  1796  02E8  30EF               	movlw	239
  1797  02E9  00F3               	movwf	I2C_Master_Write@d
  1798  02EA  3000               	movlw	0
  1799  02EB  00F4               	movwf	I2C_Master_Write@d+1
  1800  02EC  120A  158A  2164  120A  118A  	fcall	_I2C_Master_Write
  1801  02F1                     l2779:
  1802                           
  1803                           ;MASTER_Proyecto.c: 224:         temp2 = I2C_Master_Read(0);
  1804  02F1  3000               	movlw	0
  1805  02F2  00F3               	movwf	I2C_Master_Read@a
  1806  02F3  00F4               	movwf	I2C_Master_Read@a+1
  1807  02F4  120A  158A  2185  120A  118A  	fcall	_I2C_Master_Read
  1808  02F9  0873               	movf	?_I2C_Master_Read,w
  1809  02FA  1683               	bsf	3,5	;RP0=1, select bank1
  1810  02FB  1303               	bcf	3,6	;RP1=0, select bank1
  1811  02FC  00BB               	movwf	??_main^(0+128)
  1812  02FD  083B               	movf	??_main^(0+128),w
  1813  02FE  00B9               	movwf	_temp2^(0+128)
  1814  02FF                     l2781:
  1815                           
  1816                           ;MASTER_Proyecto.c: 225:         I2C_Master_Read(0);
  1817  02FF  3000               	movlw	0
  1818  0300  00F3               	movwf	I2C_Master_Read@a
  1819  0301  00F4               	movwf	I2C_Master_Read@a+1
  1820  0302  120A  158A  2185  120A  118A  	fcall	_I2C_Master_Read
  1821  0307                     l2783:
  1822                           
  1823                           ;MASTER_Proyecto.c: 226:         I2C_Master_Stop();
  1824  0307  120A  118A  27F7  120A  118A  	fcall	_I2C_Master_Stop
  1825  030C                     l2785:
  1826                           
  1827                           ;MASTER_Proyecto.c: 227:         _delay((unsigned long)((1)*(1000000/4000.0)));
  1828  030C  3052               	movlw	82
  1829  030D  1683               	bsf	3,5	;RP0=1, select bank1
  1830  030E  1303               	bcf	3,6	;RP1=0, select bank1
  1831  030F  00BB               	movwf	??_main^(0+128)
  1832  0310                     u2367:
  1833  0310  0BBB               	decfsz	??_main^(0+128),f
  1834  0311  2B10               	goto	u2367
  1835  0312  0000               	nop
  1836  0313                     l2787:
  1837                           
  1838                           ;MASTER_Proyecto.c: 229:         I2C_Master_Start();
  1839  0313  120A  158A  215B  120A  118A  	fcall	_I2C_Master_Start
  1840  0318                     l2789:
  1841                           
  1842                           ;MASTER_Proyecto.c: 230:         I2C_Master_Write(0xEE);
  1843  0318  30EE               	movlw	238
  1844  0319  00F3               	movwf	I2C_Master_Write@d
  1845  031A  3000               	movlw	0
  1846  031B  00F4               	movwf	I2C_Master_Write@d+1
  1847  031C  120A  158A  2164  120A  118A  	fcall	_I2C_Master_Write
  1848  0321                     l2791:
  1849                           
  1850                           ;MASTER_Proyecto.c: 231:         I2C_Master_Write(0xFC);
  1851  0321  30FC               	movlw	252
  1852  0322  00F3               	movwf	I2C_Master_Write@d
  1853  0323  3000               	movlw	0
  1854  0324  00F4               	movwf	I2C_Master_Write@d+1
  1855  0325  120A  158A  2164  120A  118A  	fcall	_I2C_Master_Write
  1856  032A                     l2793:
  1857                           
  1858                           ;MASTER_Proyecto.c: 232:         I2C_Master_RepeatedStart();
  1859  032A  120A  158A  2152  120A  118A  	fcall	_I2C_Master_RepeatedStart
  1860  032F                     l2795:
  1861                           
  1862                           ;MASTER_Proyecto.c: 233:         I2C_Master_Write(0xEF);
  1863  032F  30EF               	movlw	239
  1864  0330  00F3               	movwf	I2C_Master_Write@d
  1865  0331  3000               	movlw	0
  1866  0332  00F4               	movwf	I2C_Master_Write@d+1
  1867  0333  120A  158A  2164  120A  118A  	fcall	_I2C_Master_Write
  1868  0338                     l2797:
  1869                           
  1870                           ;MASTER_Proyecto.c: 234:         temp3 = I2C_Master_Read(0);
  1871  0338  3000               	movlw	0
  1872  0339  00F3               	movwf	I2C_Master_Read@a
  1873  033A  00F4               	movwf	I2C_Master_Read@a+1
  1874  033B  120A  158A  2185  120A  118A  	fcall	_I2C_Master_Read
  1875  0340  0873               	movf	?_I2C_Master_Read,w
  1876  0341  1683               	bsf	3,5	;RP0=1, select bank1
  1877  0342  1303               	bcf	3,6	;RP1=0, select bank1
  1878  0343  00BB               	movwf	??_main^(0+128)
  1879  0344  083B               	movf	??_main^(0+128),w
  1880  0345  00B8               	movwf	_temp3^(0+128)
  1881  0346                     l2799:
  1882                           
  1883                           ;MASTER_Proyecto.c: 235:         I2C_Master_Read(0);
  1884  0346  3000               	movlw	0
  1885  0347  00F3               	movwf	I2C_Master_Read@a
  1886  0348  00F4               	movwf	I2C_Master_Read@a+1
  1887  0349  120A  158A  2185  120A  118A  	fcall	_I2C_Master_Read
  1888  034E                     l2801:
  1889                           
  1890                           ;MASTER_Proyecto.c: 236:         I2C_Master_Stop();
  1891  034E  120A  118A  27F7  120A  118A  	fcall	_I2C_Master_Stop
  1892  0353                     l2803:
  1893                           
  1894                           ;MASTER_Proyecto.c: 237:         _delay((unsigned long)((1)*(1000000/4000.0)));
  1895  0353  3052               	movlw	82
  1896  0354  1683               	bsf	3,5	;RP0=1, select bank1
  1897  0355  1303               	bcf	3,6	;RP1=0, select bank1
  1898  0356  00BB               	movwf	??_main^(0+128)
  1899  0357                     u2377:
  1900  0357  0BBB               	decfsz	??_main^(0+128),f
  1901  0358  2B57               	goto	u2377
  1902  0359  0000               	nop
  1903  035A                     l2805:
  1904                           
  1905                           ;MASTER_Proyecto.c: 239:         temp = temp1;
  1906  035A  1683               	bsf	3,5	;RP0=1, select bank1
  1907  035B  1303               	bcf	3,6	;RP1=0, select bank1
  1908  035C  083A               	movf	_temp1^(0+128),w
  1909  035D  00BB               	movwf	??_main^(0+128)
  1910  035E  01BC               	clrf	(??_main^(0+128)+1)
  1911  035F  01BD               	clrf	(??_main^(0+128)+2)
  1912  0360  01BE               	clrf	(??_main^(0+128)+3)
  1913  0361  083E               	movf	(??_main+3)^(0+128),w
  1914  0362  1283               	bcf	3,5	;RP0=0, select bank0
  1915  0363  1303               	bcf	3,6	;RP1=0, select bank0
  1916  0364  00E4               	movwf	_temp+3
  1917  0365  1683               	bsf	3,5	;RP0=1, select bank1
  1918  0366  1303               	bcf	3,6	;RP1=0, select bank1
  1919  0367  083D               	movf	(??_main+2)^(0+128),w
  1920  0368  1283               	bcf	3,5	;RP0=0, select bank0
  1921  0369  1303               	bcf	3,6	;RP1=0, select bank0
  1922  036A  00E3               	movwf	_temp+2
  1923  036B  1683               	bsf	3,5	;RP0=1, select bank1
  1924  036C  1303               	bcf	3,6	;RP1=0, select bank1
  1925  036D  083C               	movf	(??_main+1)^(0+128),w
  1926  036E  1283               	bcf	3,5	;RP0=0, select bank0
  1927  036F  1303               	bcf	3,6	;RP1=0, select bank0
  1928  0370  00E2               	movwf	_temp+1
  1929  0371  1683               	bsf	3,5	;RP0=1, select bank1
  1930  0372  1303               	bcf	3,6	;RP1=0, select bank1
  1931  0373  083B               	movf	??_main^(0+128),w
  1932  0374  1283               	bcf	3,5	;RP0=0, select bank0
  1933  0375  1303               	bcf	3,6	;RP1=0, select bank0
  1934  0376  00E1               	movwf	_temp
  1935  0377                     l2807:
  1936                           
  1937                           ;MASTER_Proyecto.c: 240:         temp = (temp<<8)|temp2;
  1938  0377  1683               	bsf	3,5	;RP0=1, select bank1
  1939  0378  1303               	bcf	3,6	;RP1=0, select bank1
  1940  0379  0839               	movf	_temp2^(0+128),w
  1941  037A  00BB               	movwf	??_main^(0+128)
  1942  037B  01BC               	clrf	(??_main^(0+128)+1)
  1943  037C  01BD               	clrf	(??_main^(0+128)+2)
  1944  037D  01BE               	clrf	(??_main^(0+128)+3)
  1945  037E  1283               	bcf	3,5	;RP0=0, select bank0
  1946  037F  1303               	bcf	3,6	;RP1=0, select bank0
  1947  0380  0861               	movf	_temp,w
  1948  0381  1683               	bsf	3,5	;RP0=1, select bank1
  1949  0382  1303               	bcf	3,6	;RP1=0, select bank1
  1950  0383  00BF               	movwf	(??_main+4)^(0+128)
  1951  0384  1283               	bcf	3,5	;RP0=0, select bank0
  1952  0385  1303               	bcf	3,6	;RP1=0, select bank0
  1953  0386  0862               	movf	_temp+1,w
  1954  0387  1683               	bsf	3,5	;RP0=1, select bank1
  1955  0388  1303               	bcf	3,6	;RP1=0, select bank1
  1956  0389  00C0               	movwf	((??_main+4)^(0+128)+1)
  1957  038A  1283               	bcf	3,5	;RP0=0, select bank0
  1958  038B  1303               	bcf	3,6	;RP1=0, select bank0
  1959  038C  0863               	movf	_temp+2,w
  1960  038D  1683               	bsf	3,5	;RP0=1, select bank1
  1961  038E  1303               	bcf	3,6	;RP1=0, select bank1
  1962  038F  00C1               	movwf	((??_main+4)^(0+128)+2)
  1963  0390  1283               	bcf	3,5	;RP0=0, select bank0
  1964  0391  1303               	bcf	3,6	;RP1=0, select bank0
  1965  0392  0864               	movf	_temp+3,w
  1966  0393  1683               	bsf	3,5	;RP0=1, select bank1
  1967  0394  1303               	bcf	3,6	;RP1=0, select bank1
  1968  0395  00C2               	movwf	((??_main+4)^(0+128)+3)
  1969  0396  3008               	movlw	8
  1970  0397                     u2165:
  1971  0397  1003               	clrc
  1972  0398  0DBF               	rlf	(??_main+4)^(0+128),f
  1973  0399  0DC0               	rlf	((??_main+4)^(0+128)+1),f
  1974  039A  0DC1               	rlf	((??_main+4)^(0+128)+2),f
  1975  039B  0DC2               	rlf	((??_main+4)^(0+128)+3),f
  1976  039C                     u2160:
  1977  039C  3EFF               	addlw	-1
  1978  039D  1D03               	skipz
  1979  039E  2B97               	goto	u2165
  1980  039F  083F               	movf	(??_main+4)^(0+128),w
  1981  03A0  04BB               	iorwf	??_main^(0+128),f
  1982  03A1  0840               	movf	(??_main+5)^(0+128),w
  1983  03A2  04BC               	iorwf	(??_main^(0+128)+1),f
  1984  03A3  0841               	movf	(??_main+6)^(0+128),w
  1985  03A4  04BD               	iorwf	(??_main^(0+128)+2),f
  1986  03A5  0842               	movf	(??_main+7)^(0+128),w
  1987  03A6  04BE               	iorwf	(??_main^(0+128)+3),f
  1988  03A7  083E               	movf	(??_main+3)^(0+128),w
  1989  03A8  1283               	bcf	3,5	;RP0=0, select bank0
  1990  03A9  1303               	bcf	3,6	;RP1=0, select bank0
  1991  03AA  00E4               	movwf	_temp+3
  1992  03AB  1683               	bsf	3,5	;RP0=1, select bank1
  1993  03AC  1303               	bcf	3,6	;RP1=0, select bank1
  1994  03AD  083D               	movf	(??_main+2)^(0+128),w
  1995  03AE  1283               	bcf	3,5	;RP0=0, select bank0
  1996  03AF  1303               	bcf	3,6	;RP1=0, select bank0
  1997  03B0  00E3               	movwf	_temp+2
  1998  03B1  1683               	bsf	3,5	;RP0=1, select bank1
  1999  03B2  1303               	bcf	3,6	;RP1=0, select bank1
  2000  03B3  083C               	movf	(??_main+1)^(0+128),w
  2001  03B4  1283               	bcf	3,5	;RP0=0, select bank0
  2002  03B5  1303               	bcf	3,6	;RP1=0, select bank0
  2003  03B6  00E2               	movwf	_temp+1
  2004  03B7  1683               	bsf	3,5	;RP0=1, select bank1
  2005  03B8  1303               	bcf	3,6	;RP1=0, select bank1
  2006  03B9  083B               	movf	??_main^(0+128),w
  2007  03BA  1283               	bcf	3,5	;RP0=0, select bank0
  2008  03BB  1303               	bcf	3,6	;RP1=0, select bank0
  2009  03BC  00E1               	movwf	_temp
  2010  03BD                     l2809:
  2011                           
  2012                           ;MASTER_Proyecto.c: 241:         temp = (temp<<8)|temp3;
  2013  03BD  1683               	bsf	3,5	;RP0=1, select bank1
  2014  03BE  1303               	bcf	3,6	;RP1=0, select bank1
  2015  03BF  0838               	movf	_temp3^(0+128),w
  2016  03C0  00BB               	movwf	??_main^(0+128)
  2017  03C1  01BC               	clrf	(??_main^(0+128)+1)
  2018  03C2  01BD               	clrf	(??_main^(0+128)+2)
  2019  03C3  01BE               	clrf	(??_main^(0+128)+3)
  2020  03C4  1283               	bcf	3,5	;RP0=0, select bank0
  2021  03C5  1303               	bcf	3,6	;RP1=0, select bank0
  2022  03C6  0861               	movf	_temp,w
  2023  03C7  1683               	bsf	3,5	;RP0=1, select bank1
  2024  03C8  1303               	bcf	3,6	;RP1=0, select bank1
  2025  03C9  00BF               	movwf	(??_main+4)^(0+128)
  2026  03CA  1283               	bcf	3,5	;RP0=0, select bank0
  2027  03CB  1303               	bcf	3,6	;RP1=0, select bank0
  2028  03CC  0862               	movf	_temp+1,w
  2029  03CD  1683               	bsf	3,5	;RP0=1, select bank1
  2030  03CE  1303               	bcf	3,6	;RP1=0, select bank1
  2031  03CF  00C0               	movwf	((??_main+4)^(0+128)+1)
  2032  03D0  1283               	bcf	3,5	;RP0=0, select bank0
  2033  03D1  1303               	bcf	3,6	;RP1=0, select bank0
  2034  03D2  0863               	movf	_temp+2,w
  2035  03D3  1683               	bsf	3,5	;RP0=1, select bank1
  2036  03D4  1303               	bcf	3,6	;RP1=0, select bank1
  2037  03D5  00C1               	movwf	((??_main+4)^(0+128)+2)
  2038  03D6  1283               	bcf	3,5	;RP0=0, select bank0
  2039  03D7  1303               	bcf	3,6	;RP1=0, select bank0
  2040  03D8  0864               	movf	_temp+3,w
  2041  03D9  1683               	bsf	3,5	;RP0=1, select bank1
  2042  03DA  1303               	bcf	3,6	;RP1=0, select bank1
  2043  03DB  00C2               	movwf	((??_main+4)^(0+128)+3)
  2044  03DC  3008               	movlw	8
  2045  03DD                     u2175:
  2046  03DD  1003               	clrc
  2047  03DE  0DBF               	rlf	(??_main+4)^(0+128),f
  2048  03DF  0DC0               	rlf	((??_main+4)^(0+128)+1),f
  2049  03E0  0DC1               	rlf	((??_main+4)^(0+128)+2),f
  2050  03E1  0DC2               	rlf	((??_main+4)^(0+128)+3),f
  2051  03E2                     u2170:
  2052  03E2  3EFF               	addlw	-1
  2053  03E3  1D03               	skipz
  2054  03E4  2BDD               	goto	u2175
  2055  03E5  083F               	movf	(??_main+4)^(0+128),w
  2056  03E6  04BB               	iorwf	??_main^(0+128),f
  2057  03E7  0840               	movf	(??_main+5)^(0+128),w
  2058  03E8  04BC               	iorwf	(??_main^(0+128)+1),f
  2059  03E9  0841               	movf	(??_main+6)^(0+128),w
  2060  03EA  04BD               	iorwf	(??_main^(0+128)+2),f
  2061  03EB  0842               	movf	(??_main+7)^(0+128),w
  2062  03EC  04BE               	iorwf	(??_main^(0+128)+3),f
  2063  03ED  083E               	movf	(??_main+3)^(0+128),w
  2064  03EE  1283               	bcf	3,5	;RP0=0, select bank0
  2065  03EF  1303               	bcf	3,6	;RP1=0, select bank0
  2066  03F0  00E4               	movwf	_temp+3
  2067  03F1  1683               	bsf	3,5	;RP0=1, select bank1
  2068  03F2  1303               	bcf	3,6	;RP1=0, select bank1
  2069  03F3  083D               	movf	(??_main+2)^(0+128),w
  2070  03F4  1283               	bcf	3,5	;RP0=0, select bank0
  2071  03F5  1303               	bcf	3,6	;RP1=0, select bank0
  2072  03F6  00E3               	movwf	_temp+2
  2073  03F7  1683               	bsf	3,5	;RP0=1, select bank1
  2074  03F8  1303               	bcf	3,6	;RP1=0, select bank1
  2075  03F9  083C               	movf	(??_main+1)^(0+128),w
  2076  03FA  1283               	bcf	3,5	;RP0=0, select bank0
  2077  03FB  1303               	bcf	3,6	;RP1=0, select bank0
  2078  03FC  00E2               	movwf	_temp+1
  2079  03FD  1683               	bsf	3,5	;RP0=1, select bank1
  2080  03FE  1303               	bcf	3,6	;RP1=0, select bank1
  2081  03FF  083B               	movf	??_main^(0+128),w
  2082  0400  1283               	bcf	3,5	;RP0=0, select bank0
  2083  0401  1303               	bcf	3,6	;RP1=0, select bank0
  2084  0402  00E1               	movwf	_temp
  2085  0403                     l2811:
  2086                           
  2087                           ;MASTER_Proyecto.c: 242:         temp = temp>>4;
  2088  0403  0861               	movf	_temp,w
  2089  0404  1683               	bsf	3,5	;RP0=1, select bank1
  2090  0405  1303               	bcf	3,6	;RP1=0, select bank1
  2091  0406  00BB               	movwf	??_main^(0+128)
  2092  0407  1283               	bcf	3,5	;RP0=0, select bank0
  2093  0408  1303               	bcf	3,6	;RP1=0, select bank0
  2094  0409  0862               	movf	_temp+1,w
  2095  040A  1683               	bsf	3,5	;RP0=1, select bank1
  2096  040B  1303               	bcf	3,6	;RP1=0, select bank1
  2097  040C  00BC               	movwf	(??_main^(0+128)+1)
  2098  040D  1283               	bcf	3,5	;RP0=0, select bank0
  2099  040E  1303               	bcf	3,6	;RP1=0, select bank0
  2100  040F  0863               	movf	_temp+2,w
  2101  0410  1683               	bsf	3,5	;RP0=1, select bank1
  2102  0411  1303               	bcf	3,6	;RP1=0, select bank1
  2103  0412  00BD               	movwf	(??_main^(0+128)+2)
  2104  0413  1283               	bcf	3,5	;RP0=0, select bank0
  2105  0414  1303               	bcf	3,6	;RP1=0, select bank0
  2106  0415  0864               	movf	_temp+3,w
  2107  0416  1683               	bsf	3,5	;RP0=1, select bank1
  2108  0417  1303               	bcf	3,6	;RP1=0, select bank1
  2109  0418  00BE               	movwf	(??_main^(0+128)+3)
  2110  0419  3004               	movlw	4
  2111  041A                     u2185:
  2112  041A  1003               	clrc
  2113  041B  0CBE               	rrf	(??_main^(0+128)+3),f
  2114  041C  0CBD               	rrf	(??_main^(0+128)+2),f
  2115  041D  0CBC               	rrf	(??_main^(0+128)+1),f
  2116  041E  0CBB               	rrf	??_main^(0+128),f
  2117  041F                     u2180:
  2118  041F  3EFF               	addlw	-1
  2119  0420  1D03               	skipz
  2120  0421  2C1A               	goto	u2185
  2121  0422  083E               	movf	(??_main+3)^(0+128),w
  2122  0423  1283               	bcf	3,5	;RP0=0, select bank0
  2123  0424  1303               	bcf	3,6	;RP1=0, select bank0
  2124  0425  00E4               	movwf	_temp+3
  2125  0426  1683               	bsf	3,5	;RP0=1, select bank1
  2126  0427  1303               	bcf	3,6	;RP1=0, select bank1
  2127  0428  083D               	movf	(??_main+2)^(0+128),w
  2128  0429  1283               	bcf	3,5	;RP0=0, select bank0
  2129  042A  1303               	bcf	3,6	;RP1=0, select bank0
  2130  042B  00E3               	movwf	_temp+2
  2131  042C  1683               	bsf	3,5	;RP0=1, select bank1
  2132  042D  1303               	bcf	3,6	;RP1=0, select bank1
  2133  042E  083C               	movf	(??_main+1)^(0+128),w
  2134  042F  1283               	bcf	3,5	;RP0=0, select bank0
  2135  0430  1303               	bcf	3,6	;RP1=0, select bank0
  2136  0431  00E2               	movwf	_temp+1
  2137  0432  1683               	bsf	3,5	;RP0=1, select bank1
  2138  0433  1303               	bcf	3,6	;RP1=0, select bank1
  2139  0434  083B               	movf	??_main^(0+128),w
  2140  0435  1283               	bcf	3,5	;RP0=0, select bank0
  2141  0436  1303               	bcf	3,6	;RP1=0, select bank0
  2142  0437  00E1               	movwf	_temp
  2143  0438                     l2813:
  2144                           
  2145                           ;MASTER_Proyecto.c: 244:         PORTB = temp;
  2146  0438  0861               	movf	_temp,w
  2147  0439  0086               	movwf	6	;volatile
  2148  043A                     l2815:
  2149                           
  2150                           ;MASTER_Proyecto.c: 246:         I2C_Master_Start();
  2151  043A  120A  158A  215B  120A  118A  	fcall	_I2C_Master_Start
  2152  043F                     l2817:
  2153                           
  2154                           ;MASTER_Proyecto.c: 247:         I2C_Master_Write(0xEE);
  2155  043F  30EE               	movlw	238
  2156  0440  00F3               	movwf	I2C_Master_Write@d
  2157  0441  3000               	movlw	0
  2158  0442  00F4               	movwf	I2C_Master_Write@d+1
  2159  0443  120A  158A  2164  120A  118A  	fcall	_I2C_Master_Write
  2160  0448                     l2819:
  2161                           
  2162                           ;MASTER_Proyecto.c: 248:         I2C_Master_Write(0x89);
  2163  0448  3089               	movlw	137
  2164  0449  00F3               	movwf	I2C_Master_Write@d
  2165  044A  3000               	movlw	0
  2166  044B  00F4               	movwf	I2C_Master_Write@d+1
  2167  044C  120A  158A  2164  120A  118A  	fcall	_I2C_Master_Write
  2168  0451                     l2821:
  2169                           
  2170                           ;MASTER_Proyecto.c: 249:         I2C_Master_RepeatedStart();
  2171  0451  120A  158A  2152  120A  118A  	fcall	_I2C_Master_RepeatedStart
  2172  0456                     l2823:
  2173                           
  2174                           ;MASTER_Proyecto.c: 250:         I2C_Master_Write(0xEF);
  2175  0456  30EF               	movlw	239
  2176  0457  00F3               	movwf	I2C_Master_Write@d
  2177  0458  3000               	movlw	0
  2178  0459  00F4               	movwf	I2C_Master_Write@d+1
  2179  045A  120A  158A  2164  120A  118A  	fcall	_I2C_Master_Write
  2180  045F                     l2825:
  2181                           
  2182                           ;MASTER_Proyecto.c: 251:         var1_1 = I2C_Master_Read(0);
  2183  045F  3000               	movlw	0
  2184  0460  00F3               	movwf	I2C_Master_Read@a
  2185  0461  00F4               	movwf	I2C_Master_Read@a+1
  2186  0462  120A  158A  2185  120A  118A  	fcall	_I2C_Master_Read
  2187  0467  0873               	movf	?_I2C_Master_Read,w
  2188  0468  1683               	bsf	3,5	;RP0=1, select bank1
  2189  0469  1303               	bcf	3,6	;RP1=0, select bank1
  2190  046A  00BB               	movwf	??_main^(0+128)
  2191  046B  083B               	movf	??_main^(0+128),w
  2192  046C  00B7               	movwf	_var1_1^(0+128)
  2193  046D                     l2827:
  2194                           
  2195                           ;MASTER_Proyecto.c: 252:         I2C_Master_Read(0);
  2196  046D  3000               	movlw	0
  2197  046E  00F3               	movwf	I2C_Master_Read@a
  2198  046F  00F4               	movwf	I2C_Master_Read@a+1
  2199  0470  120A  158A  2185  120A  118A  	fcall	_I2C_Master_Read
  2200  0475                     l2829:
  2201                           
  2202                           ;MASTER_Proyecto.c: 253:         I2C_Master_Stop();
  2203  0475  120A  118A  27F7  120A  118A  	fcall	_I2C_Master_Stop
  2204  047A                     l2831:
  2205                           
  2206                           ;MASTER_Proyecto.c: 254:         _delay((unsigned long)((1)*(1000000/4000.0)));
  2207  047A  3052               	movlw	82
  2208  047B  1683               	bsf	3,5	;RP0=1, select bank1
  2209  047C  1303               	bcf	3,6	;RP1=0, select bank1
  2210  047D  00BB               	movwf	??_main^(0+128)
  2211  047E                     u2387:
  2212  047E  0BBB               	decfsz	??_main^(0+128),f
  2213  047F  2C7E               	goto	u2387
  2214  0480  0000               	nop
  2215  0481                     l2833:
  2216                           
  2217                           ;MASTER_Proyecto.c: 256:         I2C_Master_Start();
  2218  0481  120A  158A  215B  120A  118A  	fcall	_I2C_Master_Start
  2219  0486                     l2835:
  2220                           
  2221                           ;MASTER_Proyecto.c: 257:         I2C_Master_Write(0xEE);
  2222  0486  30EE               	movlw	238
  2223  0487  00F3               	movwf	I2C_Master_Write@d
  2224  0488  3000               	movlw	0
  2225  0489  00F4               	movwf	I2C_Master_Write@d+1
  2226  048A  120A  158A  2164  120A  118A  	fcall	_I2C_Master_Write
  2227  048F                     l2837:
  2228                           
  2229                           ;MASTER_Proyecto.c: 258:         I2C_Master_Write(0x88);
  2230  048F  3088               	movlw	136
  2231  0490  00F3               	movwf	I2C_Master_Write@d
  2232  0491  3000               	movlw	0
  2233  0492  00F4               	movwf	I2C_Master_Write@d+1
  2234  0493  120A  158A  2164  120A  118A  	fcall	_I2C_Master_Write
  2235  0498                     l2839:
  2236                           
  2237                           ;MASTER_Proyecto.c: 259:         I2C_Master_RepeatedStart();
  2238  0498  120A  158A  2152  120A  118A  	fcall	_I2C_Master_RepeatedStart
  2239  049D                     l2841:
  2240                           
  2241                           ;MASTER_Proyecto.c: 260:         I2C_Master_Write(0xEF);
  2242  049D  30EF               	movlw	239
  2243  049E  00F3               	movwf	I2C_Master_Write@d
  2244  049F  3000               	movlw	0
  2245  04A0  00F4               	movwf	I2C_Master_Write@d+1
  2246  04A1  120A  158A  2164  120A  118A  	fcall	_I2C_Master_Write
  2247  04A6                     l2843:
  2248                           
  2249                           ;MASTER_Proyecto.c: 261:         var1_2 = I2C_Master_Read(0);
  2250  04A6  3000               	movlw	0
  2251  04A7  00F3               	movwf	I2C_Master_Read@a
  2252  04A8  00F4               	movwf	I2C_Master_Read@a+1
  2253  04A9  120A  158A  2185  120A  118A  	fcall	_I2C_Master_Read
  2254  04AE  0873               	movf	?_I2C_Master_Read,w
  2255  04AF  1683               	bsf	3,5	;RP0=1, select bank1
  2256  04B0  1303               	bcf	3,6	;RP1=0, select bank1
  2257  04B1  00BB               	movwf	??_main^(0+128)
  2258  04B2  083B               	movf	??_main^(0+128),w
  2259  04B3  00B6               	movwf	_var1_2^(0+128)
  2260  04B4                     l2845:
  2261                           
  2262                           ;MASTER_Proyecto.c: 262:         I2C_Master_Read(0);
  2263  04B4  3000               	movlw	0
  2264  04B5  00F3               	movwf	I2C_Master_Read@a
  2265  04B6  00F4               	movwf	I2C_Master_Read@a+1
  2266  04B7  120A  158A  2185  120A  118A  	fcall	_I2C_Master_Read
  2267  04BC                     l2847:
  2268                           
  2269                           ;MASTER_Proyecto.c: 263:         I2C_Master_Stop();
  2270  04BC  120A  118A  27F7  120A  118A  	fcall	_I2C_Master_Stop
  2271  04C1                     l2849:
  2272                           
  2273                           ;MASTER_Proyecto.c: 264:         _delay((unsigned long)((1)*(1000000/4000.0)));
  2274  04C1  3052               	movlw	82
  2275  04C2  1683               	bsf	3,5	;RP0=1, select bank1
  2276  04C3  1303               	bcf	3,6	;RP1=0, select bank1
  2277  04C4  00BB               	movwf	??_main^(0+128)
  2278  04C5                     u2397:
  2279  04C5  0BBB               	decfsz	??_main^(0+128),f
  2280  04C6  2CC5               	goto	u2397
  2281  04C7  0000               	nop
  2282  04C8                     l2851:
  2283                           
  2284                           ;MASTER_Proyecto.c: 266:         dig1 = var1_1;
  2285  04C8  1683               	bsf	3,5	;RP0=1, select bank1
  2286  04C9  1303               	bcf	3,6	;RP1=0, select bank1
  2287  04CA  0837               	movf	_var1_1^(0+128),w
  2288  04CB  00BB               	movwf	??_main^(0+128)
  2289  04CC  01BC               	clrf	(??_main^(0+128)+1)
  2290  04CD  083B               	movf	??_main^(0+128),w
  2291  04CE  00A8               	movwf	_dig1^(0+128)
  2292  04CF  083C               	movf	(??_main+1)^(0+128),w
  2293  04D0  00A9               	movwf	(_dig1+1)^(0+128)
  2294  04D1                     l2853:
  2295                           
  2296                           ;MASTER_Proyecto.c: 267:         dig1 = (dig1<<8)|var1_2;
  2297  04D1  0836               	movf	_var1_2^(0+128),w
  2298  04D2  00BB               	movwf	??_main^(0+128)
  2299  04D3  01BC               	clrf	(??_main^(0+128)+1)
  2300  04D4  0828               	movf	_dig1^(0+128),w
  2301  04D5  00BE               	movwf	((??_main+2)^(0+128)+1)
  2302  04D6  01BD               	clrf	(??_main+2)^(0+128)
  2303  04D7  083B               	movf	??_main^(0+128),w
  2304  04D8  043D               	iorwf	(??_main+2)^(0+128),w
  2305  04D9  00A8               	movwf	_dig1^(0+128)
  2306  04DA  083C               	movf	(??_main+1)^(0+128),w
  2307  04DB  043E               	iorwf	(??_main+3)^(0+128),w
  2308  04DC  00A9               	movwf	(_dig1+1)^(0+128)
  2309  04DD                     l2855:
  2310                           
  2311                           ;MASTER_Proyecto.c: 269:         I2C_Master_Start();
  2312  04DD  120A  158A  215B  120A  118A  	fcall	_I2C_Master_Start
  2313  04E2                     l2857:
  2314                           
  2315                           ;MASTER_Proyecto.c: 270:         I2C_Master_Write(0xEE);
  2316  04E2  30EE               	movlw	238
  2317  04E3  00F3               	movwf	I2C_Master_Write@d
  2318  04E4  3000               	movlw	0
  2319  04E5  00F4               	movwf	I2C_Master_Write@d+1
  2320  04E6  120A  158A  2164  120A  118A  	fcall	_I2C_Master_Write
  2321  04EB                     l2859:
  2322                           
  2323                           ;MASTER_Proyecto.c: 271:         I2C_Master_Write(0x8B);
  2324  04EB  308B               	movlw	139
  2325  04EC  00F3               	movwf	I2C_Master_Write@d
  2326  04ED  3000               	movlw	0
  2327  04EE  00F4               	movwf	I2C_Master_Write@d+1
  2328  04EF  120A  158A  2164  120A  118A  	fcall	_I2C_Master_Write
  2329  04F4                     l2861:
  2330                           
  2331                           ;MASTER_Proyecto.c: 272:         I2C_Master_RepeatedStart();
  2332  04F4  120A  158A  2152  120A  118A  	fcall	_I2C_Master_RepeatedStart
  2333  04F9                     l2863:
  2334                           
  2335                           ;MASTER_Proyecto.c: 273:         I2C_Master_Write(0xEF);
  2336  04F9  30EF               	movlw	239
  2337  04FA  00F3               	movwf	I2C_Master_Write@d
  2338  04FB  3000               	movlw	0
  2339  04FC  00F4               	movwf	I2C_Master_Write@d+1
  2340  04FD  120A  158A  2164  120A  118A  	fcall	_I2C_Master_Write
  2341  0502                     l2865:
  2342                           
  2343                           ;MASTER_Proyecto.c: 274:         var2_1 = I2C_Master_Read(0);
  2344  0502  3000               	movlw	0
  2345  0503  00F3               	movwf	I2C_Master_Read@a
  2346  0504  00F4               	movwf	I2C_Master_Read@a+1
  2347  0505  120A  158A  2185  120A  118A  	fcall	_I2C_Master_Read
  2348  050A  0873               	movf	?_I2C_Master_Read,w
  2349  050B  1683               	bsf	3,5	;RP0=1, select bank1
  2350  050C  1303               	bcf	3,6	;RP1=0, select bank1
  2351  050D  00BB               	movwf	??_main^(0+128)
  2352  050E  083B               	movf	??_main^(0+128),w
  2353  050F  00B5               	movwf	_var2_1^(0+128)
  2354  0510                     l2867:
  2355                           
  2356                           ;MASTER_Proyecto.c: 275:         I2C_Master_Read(0);
  2357  0510  3000               	movlw	0
  2358  0511  00F3               	movwf	I2C_Master_Read@a
  2359  0512  00F4               	movwf	I2C_Master_Read@a+1
  2360  0513  120A  158A  2185  120A  118A  	fcall	_I2C_Master_Read
  2361  0518                     l2869:
  2362                           
  2363                           ;MASTER_Proyecto.c: 276:         I2C_Master_Stop();
  2364  0518  120A  118A  27F7  120A  118A  	fcall	_I2C_Master_Stop
  2365  051D                     l2871:
  2366                           
  2367                           ;MASTER_Proyecto.c: 277:         _delay((unsigned long)((1)*(1000000/4000.0)));
  2368  051D  3052               	movlw	82
  2369  051E  1683               	bsf	3,5	;RP0=1, select bank1
  2370  051F  1303               	bcf	3,6	;RP1=0, select bank1
  2371  0520  00BB               	movwf	??_main^(0+128)
  2372  0521                     u2407:
  2373  0521  0BBB               	decfsz	??_main^(0+128),f
  2374  0522  2D21               	goto	u2407
  2375  0523  0000               	nop
  2376  0524                     l2873:
  2377                           
  2378                           ;MASTER_Proyecto.c: 279:         I2C_Master_Start();
  2379  0524  120A  158A  215B  120A  118A  	fcall	_I2C_Master_Start
  2380  0529                     l2875:
  2381                           
  2382                           ;MASTER_Proyecto.c: 280:         I2C_Master_Write(0xEE);
  2383  0529  30EE               	movlw	238
  2384  052A  00F3               	movwf	I2C_Master_Write@d
  2385  052B  3000               	movlw	0
  2386  052C  00F4               	movwf	I2C_Master_Write@d+1
  2387  052D  120A  158A  2164  120A  118A  	fcall	_I2C_Master_Write
  2388  0532                     l2877:
  2389                           
  2390                           ;MASTER_Proyecto.c: 281:         I2C_Master_Write(0x8A);
  2391  0532  308A               	movlw	138
  2392  0533  00F3               	movwf	I2C_Master_Write@d
  2393  0534  3000               	movlw	0
  2394  0535  00F4               	movwf	I2C_Master_Write@d+1
  2395  0536  120A  158A  2164  120A  118A  	fcall	_I2C_Master_Write
  2396  053B                     l2879:
  2397                           
  2398                           ;MASTER_Proyecto.c: 282:         I2C_Master_RepeatedStart();
  2399  053B  120A  158A  2152  120A  118A  	fcall	_I2C_Master_RepeatedStart
  2400  0540                     l2881:
  2401                           
  2402                           ;MASTER_Proyecto.c: 283:         I2C_Master_Write(0xEF);
  2403  0540  30EF               	movlw	239
  2404  0541  00F3               	movwf	I2C_Master_Write@d
  2405  0542  3000               	movlw	0
  2406  0543  00F4               	movwf	I2C_Master_Write@d+1
  2407  0544  120A  158A  2164  120A  118A  	fcall	_I2C_Master_Write
  2408  0549                     l2883:
  2409                           
  2410                           ;MASTER_Proyecto.c: 284:         var2_2 = I2C_Master_Read(0);
  2411  0549  3000               	movlw	0
  2412  054A  00F3               	movwf	I2C_Master_Read@a
  2413  054B  00F4               	movwf	I2C_Master_Read@a+1
  2414  054C  120A  158A  2185  120A  118A  	fcall	_I2C_Master_Read
  2415  0551  0873               	movf	?_I2C_Master_Read,w
  2416  0552  1683               	bsf	3,5	;RP0=1, select bank1
  2417  0553  1303               	bcf	3,6	;RP1=0, select bank1
  2418  0554  00BB               	movwf	??_main^(0+128)
  2419  0555  083B               	movf	??_main^(0+128),w
  2420  0556  00B4               	movwf	_var2_2^(0+128)
  2421  0557                     l2885:
  2422                           
  2423                           ;MASTER_Proyecto.c: 285:         I2C_Master_Read(0);
  2424  0557  3000               	movlw	0
  2425  0558  00F3               	movwf	I2C_Master_Read@a
  2426  0559  00F4               	movwf	I2C_Master_Read@a+1
  2427  055A  120A  158A  2185  120A  118A  	fcall	_I2C_Master_Read
  2428  055F                     l2887:
  2429                           
  2430                           ;MASTER_Proyecto.c: 286:         I2C_Master_Stop();
  2431  055F  120A  118A  27F7  120A  118A  	fcall	_I2C_Master_Stop
  2432  0564                     l2889:
  2433                           
  2434                           ;MASTER_Proyecto.c: 287:         _delay((unsigned long)((1)*(1000000/4000.0)));
  2435  0564  3052               	movlw	82
  2436  0565  1683               	bsf	3,5	;RP0=1, select bank1
  2437  0566  1303               	bcf	3,6	;RP1=0, select bank1
  2438  0567  00BB               	movwf	??_main^(0+128)
  2439  0568                     u2417:
  2440  0568  0BBB               	decfsz	??_main^(0+128),f
  2441  0569  2D68               	goto	u2417
  2442  056A  0000               	nop
  2443  056B                     l2891:
  2444                           
  2445                           ;MASTER_Proyecto.c: 289:         dig2 = var2_1;
  2446  056B  1683               	bsf	3,5	;RP0=1, select bank1
  2447  056C  1303               	bcf	3,6	;RP1=0, select bank1
  2448  056D  0835               	movf	_var2_1^(0+128),w
  2449  056E  00BB               	movwf	??_main^(0+128)
  2450  056F  01BC               	clrf	(??_main^(0+128)+1)
  2451  0570  083B               	movf	??_main^(0+128),w
  2452  0571  00A6               	movwf	_dig2^(0+128)
  2453  0572  083C               	movf	(??_main+1)^(0+128),w
  2454  0573  00A7               	movwf	(_dig2+1)^(0+128)
  2455  0574                     l2893:
  2456                           
  2457                           ;MASTER_Proyecto.c: 290:         dig2 = (dig2<<8)|var2_2;
  2458  0574  0834               	movf	_var2_2^(0+128),w
  2459  0575  00BB               	movwf	??_main^(0+128)
  2460  0576  01BC               	clrf	(??_main^(0+128)+1)
  2461  0577  0826               	movf	_dig2^(0+128),w
  2462  0578  00BE               	movwf	((??_main+2)^(0+128)+1)
  2463  0579  01BD               	clrf	(??_main+2)^(0+128)
  2464  057A  083B               	movf	??_main^(0+128),w
  2465  057B  043D               	iorwf	(??_main+2)^(0+128),w
  2466  057C  00A6               	movwf	_dig2^(0+128)
  2467  057D  083C               	movf	(??_main+1)^(0+128),w
  2468  057E  043E               	iorwf	(??_main+3)^(0+128),w
  2469  057F  00A7               	movwf	(_dig2+1)^(0+128)
  2470  0580                     l2895:
  2471                           
  2472                           ;MASTER_Proyecto.c: 292:         I2C_Master_Start();
  2473  0580  120A  158A  215B  120A  118A  	fcall	_I2C_Master_Start
  2474  0585                     l2897:
  2475                           
  2476                           ;MASTER_Proyecto.c: 293:         I2C_Master_Write(0xEE);
  2477  0585  30EE               	movlw	238
  2478  0586  00F3               	movwf	I2C_Master_Write@d
  2479  0587  3000               	movlw	0
  2480  0588  00F4               	movwf	I2C_Master_Write@d+1
  2481  0589  120A  158A  2164  120A  118A  	fcall	_I2C_Master_Write
  2482  058E                     l2899:
  2483                           
  2484                           ;MASTER_Proyecto.c: 294:         I2C_Master_Write(0x8D);
  2485  058E  308D               	movlw	141
  2486  058F  00F3               	movwf	I2C_Master_Write@d
  2487  0590  3000               	movlw	0
  2488  0591  00F4               	movwf	I2C_Master_Write@d+1
  2489  0592  120A  158A  2164  120A  118A  	fcall	_I2C_Master_Write
  2490  0597                     l2901:
  2491                           
  2492                           ;MASTER_Proyecto.c: 295:         I2C_Master_RepeatedStart();
  2493  0597  120A  158A  2152  120A  118A  	fcall	_I2C_Master_RepeatedStart
  2494  059C                     l2903:
  2495                           
  2496                           ;MASTER_Proyecto.c: 296:         I2C_Master_Write(0xEF);
  2497  059C  30EF               	movlw	239
  2498  059D  00F3               	movwf	I2C_Master_Write@d
  2499  059E  3000               	movlw	0
  2500  059F  00F4               	movwf	I2C_Master_Write@d+1
  2501  05A0  120A  158A  2164  120A  118A  	fcall	_I2C_Master_Write
  2502  05A5                     l2905:
  2503                           
  2504                           ;MASTER_Proyecto.c: 297:         var3_1 = I2C_Master_Read(0);
  2505  05A5  3000               	movlw	0
  2506  05A6  00F3               	movwf	I2C_Master_Read@a
  2507  05A7  00F4               	movwf	I2C_Master_Read@a+1
  2508  05A8  120A  158A  2185  120A  118A  	fcall	_I2C_Master_Read
  2509  05AD  0873               	movf	?_I2C_Master_Read,w
  2510  05AE  1683               	bsf	3,5	;RP0=1, select bank1
  2511  05AF  1303               	bcf	3,6	;RP1=0, select bank1
  2512  05B0  00BB               	movwf	??_main^(0+128)
  2513  05B1  083B               	movf	??_main^(0+128),w
  2514  05B2  00B3               	movwf	_var3_1^(0+128)
  2515  05B3                     l2907:
  2516                           
  2517                           ;MASTER_Proyecto.c: 298:         I2C_Master_Read(0);
  2518  05B3  3000               	movlw	0
  2519  05B4  00F3               	movwf	I2C_Master_Read@a
  2520  05B5  00F4               	movwf	I2C_Master_Read@a+1
  2521  05B6  120A  158A  2185  120A  118A  	fcall	_I2C_Master_Read
  2522  05BB                     l2909:
  2523                           
  2524                           ;MASTER_Proyecto.c: 299:         I2C_Master_Stop();
  2525  05BB  120A  118A  27F7  120A  118A  	fcall	_I2C_Master_Stop
  2526  05C0                     l2911:
  2527                           
  2528                           ;MASTER_Proyecto.c: 300:         _delay((unsigned long)((1)*(1000000/4000.0)));
  2529  05C0  3052               	movlw	82
  2530  05C1  1683               	bsf	3,5	;RP0=1, select bank1
  2531  05C2  1303               	bcf	3,6	;RP1=0, select bank1
  2532  05C3  00BB               	movwf	??_main^(0+128)
  2533  05C4                     u2427:
  2534  05C4  0BBB               	decfsz	??_main^(0+128),f
  2535  05C5  2DC4               	goto	u2427
  2536  05C6  0000               	nop
  2537  05C7                     l2913:
  2538                           
  2539                           ;MASTER_Proyecto.c: 302:         I2C_Master_Start();
  2540  05C7  120A  158A  215B  120A  118A  	fcall	_I2C_Master_Start
  2541  05CC                     l2915:
  2542                           
  2543                           ;MASTER_Proyecto.c: 303:         I2C_Master_Write(0xEE);
  2544  05CC  30EE               	movlw	238
  2545  05CD  00F3               	movwf	I2C_Master_Write@d
  2546  05CE  3000               	movlw	0
  2547  05CF  00F4               	movwf	I2C_Master_Write@d+1
  2548  05D0  120A  158A  2164  120A  118A  	fcall	_I2C_Master_Write
  2549  05D5                     l2917:
  2550                           
  2551                           ;MASTER_Proyecto.c: 304:         I2C_Master_Write(0x8C);
  2552  05D5  308C               	movlw	140
  2553  05D6  00F3               	movwf	I2C_Master_Write@d
  2554  05D7  3000               	movlw	0
  2555  05D8  00F4               	movwf	I2C_Master_Write@d+1
  2556  05D9  120A  158A  2164  120A  118A  	fcall	_I2C_Master_Write
  2557  05DE                     l2919:
  2558                           
  2559                           ;MASTER_Proyecto.c: 305:         I2C_Master_RepeatedStart();
  2560  05DE  120A  158A  2152  120A  118A  	fcall	_I2C_Master_RepeatedStart
  2561  05E3                     l2921:
  2562                           
  2563                           ;MASTER_Proyecto.c: 306:         I2C_Master_Write(0xEF);
  2564  05E3  30EF               	movlw	239
  2565  05E4  00F3               	movwf	I2C_Master_Write@d
  2566  05E5  3000               	movlw	0
  2567  05E6  00F4               	movwf	I2C_Master_Write@d+1
  2568  05E7  120A  158A  2164  120A  118A  	fcall	_I2C_Master_Write
  2569  05EC                     l2923:
  2570                           
  2571                           ;MASTER_Proyecto.c: 307:         var3_2 = I2C_Master_Read(0);
  2572  05EC  3000               	movlw	0
  2573  05ED  00F3               	movwf	I2C_Master_Read@a
  2574  05EE  00F4               	movwf	I2C_Master_Read@a+1
  2575  05EF  120A  158A  2185  120A  118A  	fcall	_I2C_Master_Read
  2576  05F4  0873               	movf	?_I2C_Master_Read,w
  2577  05F5  1683               	bsf	3,5	;RP0=1, select bank1
  2578  05F6  1303               	bcf	3,6	;RP1=0, select bank1
  2579  05F7  00BB               	movwf	??_main^(0+128)
  2580  05F8  083B               	movf	??_main^(0+128),w
  2581  05F9  00B2               	movwf	_var3_2^(0+128)
  2582  05FA                     l2925:
  2583                           
  2584                           ;MASTER_Proyecto.c: 308:         I2C_Master_Read(0);
  2585  05FA  3000               	movlw	0
  2586  05FB  00F3               	movwf	I2C_Master_Read@a
  2587  05FC  00F4               	movwf	I2C_Master_Read@a+1
  2588  05FD  120A  158A  2185  120A  118A  	fcall	_I2C_Master_Read
  2589  0602                     l2927:
  2590                           
  2591                           ;MASTER_Proyecto.c: 309:         I2C_Master_Stop();
  2592  0602  120A  118A  27F7  120A  118A  	fcall	_I2C_Master_Stop
  2593  0607                     l2929:
  2594                           
  2595                           ;MASTER_Proyecto.c: 310:         _delay((unsigned long)((1)*(1000000/4000.0)));
  2596  0607  3052               	movlw	82
  2597  0608  1683               	bsf	3,5	;RP0=1, select bank1
  2598  0609  1303               	bcf	3,6	;RP1=0, select bank1
  2599  060A  00BB               	movwf	??_main^(0+128)
  2600  060B                     u2437:
  2601  060B  0BBB               	decfsz	??_main^(0+128),f
  2602  060C  2E0B               	goto	u2437
  2603  060D  0000               	nop
  2604  060E                     l2931:
  2605                           
  2606                           ;MASTER_Proyecto.c: 312:         dig3 = var3_1;
  2607  060E  1683               	bsf	3,5	;RP0=1, select bank1
  2608  060F  1303               	bcf	3,6	;RP1=0, select bank1
  2609  0610  0833               	movf	_var3_1^(0+128),w
  2610  0611  00BB               	movwf	??_main^(0+128)
  2611  0612  01BC               	clrf	(??_main^(0+128)+1)
  2612  0613  083B               	movf	??_main^(0+128),w
  2613  0614  00A4               	movwf	_dig3^(0+128)
  2614  0615  083C               	movf	(??_main+1)^(0+128),w
  2615  0616  00A5               	movwf	(_dig3+1)^(0+128)
  2616  0617                     l2933:
  2617                           
  2618                           ;MASTER_Proyecto.c: 313:         dig3 = (dig3<<8)|var3_2;
  2619  0617  0832               	movf	_var3_2^(0+128),w
  2620  0618  00BB               	movwf	??_main^(0+128)
  2621  0619  01BC               	clrf	(??_main^(0+128)+1)
  2622  061A  0824               	movf	_dig3^(0+128),w
  2623  061B  00BE               	movwf	((??_main+2)^(0+128)+1)
  2624  061C  01BD               	clrf	(??_main+2)^(0+128)
  2625  061D  083B               	movf	??_main^(0+128),w
  2626  061E  043D               	iorwf	(??_main+2)^(0+128),w
  2627  061F  00A4               	movwf	_dig3^(0+128)
  2628  0620  083C               	movf	(??_main+1)^(0+128),w
  2629  0621  043E               	iorwf	(??_main+3)^(0+128),w
  2630  0622  00A5               	movwf	(_dig3+1)^(0+128)
  2631  0623                     l2935:
  2632                           
  2633                           ;MASTER_Proyecto.c: 315:         temperatura = calculateTemp(temp, dig1, dig2, dig3)/100
      +                          ;
  2634  0623  3064               	movlw	100
  2635  0624  1283               	bcf	3,5	;RP0=0, select bank0
  2636  0625  1303               	bcf	3,6	;RP1=0, select bank0
  2637  0626  00D8               	movwf	___awdiv@divisor
  2638  0627  3000               	movlw	0
  2639  0628  00D9               	movwf	___awdiv@divisor+1
  2640  0629  1683               	bsf	3,5	;RP0=1, select bank1
  2641  062A  1303               	bcf	3,6	;RP1=0, select bank1
  2642  062B  0825               	movf	(_dig3+1)^(0+128),w
  2643  062C  1283               	bcf	3,5	;RP0=0, select bank0
  2644  062D  1303               	bcf	3,6	;RP1=0, select bank0
  2645  062E  00B1               	movwf	calculateTemp@dig3+1
  2646  062F  1683               	bsf	3,5	;RP0=1, select bank1
  2647  0630  1303               	bcf	3,6	;RP1=0, select bank1
  2648  0631  0824               	movf	_dig3^(0+128),w
  2649  0632  1283               	bcf	3,5	;RP0=0, select bank0
  2650  0633  1303               	bcf	3,6	;RP1=0, select bank0
  2651  0634  00B0               	movwf	calculateTemp@dig3
  2652  0635  1683               	bsf	3,5	;RP0=1, select bank1
  2653  0636  1303               	bcf	3,6	;RP1=0, select bank1
  2654  0637  0827               	movf	(_dig2+1)^(0+128),w
  2655  0638  1283               	bcf	3,5	;RP0=0, select bank0
  2656  0639  1303               	bcf	3,6	;RP1=0, select bank0
  2657  063A  00AF               	movwf	calculateTemp@dig2+1
  2658  063B  1683               	bsf	3,5	;RP0=1, select bank1
  2659  063C  1303               	bcf	3,6	;RP1=0, select bank1
  2660  063D  0826               	movf	_dig2^(0+128),w
  2661  063E  1283               	bcf	3,5	;RP0=0, select bank0
  2662  063F  1303               	bcf	3,6	;RP1=0, select bank0
  2663  0640  00AE               	movwf	calculateTemp@dig2
  2664  0641  1683               	bsf	3,5	;RP0=1, select bank1
  2665  0642  1303               	bcf	3,6	;RP1=0, select bank1
  2666  0643  0829               	movf	(_dig1+1)^(0+128),w
  2667  0644  1283               	bcf	3,5	;RP0=0, select bank0
  2668  0645  1303               	bcf	3,6	;RP1=0, select bank0
  2669  0646  00AD               	movwf	calculateTemp@dig1+1
  2670  0647  1683               	bsf	3,5	;RP0=1, select bank1
  2671  0648  1303               	bcf	3,6	;RP1=0, select bank1
  2672  0649  0828               	movf	_dig1^(0+128),w
  2673  064A  1283               	bcf	3,5	;RP0=0, select bank0
  2674  064B  1303               	bcf	3,6	;RP1=0, select bank0
  2675  064C  00AC               	movwf	calculateTemp@dig1
  2676  064D  0864               	movf	_temp+3,w
  2677  064E  00AB               	movwf	calculateTemp@temp+3
  2678  064F  0863               	movf	_temp+2,w
  2679  0650  00AA               	movwf	calculateTemp@temp+2
  2680  0651  0862               	movf	_temp+1,w
  2681  0652  00A9               	movwf	calculateTemp@temp+1
  2682  0653  0861               	movf	_temp,w
  2683  0654  00A8               	movwf	calculateTemp@temp
  2684  0655  120A  158A  23E4  120A  118A  	fcall	_calculateTemp
  2685  065A  1283               	bcf	3,5	;RP0=0, select bank0
  2686  065B  1303               	bcf	3,6	;RP1=0, select bank0
  2687  065C  0829               	movf	?_calculateTemp+1,w
  2688  065D  00DB               	movwf	___awdiv@dividend+1
  2689  065E  0828               	movf	?_calculateTemp,w
  2690  065F  00DA               	movwf	___awdiv@dividend
  2691  0660  120A  158A  230D  120A  118A  	fcall	___awdiv
  2692  0665  1283               	bcf	3,5	;RP0=0, select bank0
  2693  0666  1303               	bcf	3,6	;RP1=0, select bank0
  2694  0667  0858               	movf	?___awdiv,w
  2695  0668  1683               	bsf	3,5	;RP0=1, select bank1
  2696  0669  1303               	bcf	3,6	;RP1=0, select bank1
  2697  066A  00BB               	movwf	??_main^(0+128)
  2698  066B  083B               	movf	??_main^(0+128),w
  2699  066C  00B1               	movwf	_temperatura^(0+128)
  2700  066D                     l2937:
  2701                           
  2702                           ;MASTER_Proyecto.c: 319:         I2C_Master_Start();
  2703  066D  120A  158A  215B  120A  118A  	fcall	_I2C_Master_Start
  2704  0672                     l2939:
  2705                           
  2706                           ;MASTER_Proyecto.c: 320:         I2C_Master_Write(0xd0);
  2707  0672  30D0               	movlw	208
  2708  0673  00F3               	movwf	I2C_Master_Write@d
  2709  0674  3000               	movlw	0
  2710  0675  00F4               	movwf	I2C_Master_Write@d+1
  2711  0676  120A  158A  2164  120A  118A  	fcall	_I2C_Master_Write
  2712  067B                     l2941:
  2713                           
  2714                           ;MASTER_Proyecto.c: 321:         I2C_Master_Write(0x00);
  2715  067B  3000               	movlw	0
  2716  067C  00F3               	movwf	I2C_Master_Write@d
  2717  067D  00F4               	movwf	I2C_Master_Write@d+1
  2718  067E  120A  158A  2164  120A  118A  	fcall	_I2C_Master_Write
  2719  0683                     l2943:
  2720                           
  2721                           ;MASTER_Proyecto.c: 322:         _delay((unsigned long)((1)*(1000000/4000.0)));
  2722  0683  3052               	movlw	82
  2723  0684  1683               	bsf	3,5	;RP0=1, select bank1
  2724  0685  1303               	bcf	3,6	;RP1=0, select bank1
  2725  0686  00BB               	movwf	??_main^(0+128)
  2726  0687                     u2447:
  2727  0687  0BBB               	decfsz	??_main^(0+128),f
  2728  0688  2E87               	goto	u2447
  2729  0689  0000               	nop
  2730  068A                     l2945:
  2731                           
  2732                           ;MASTER_Proyecto.c: 324:         I2C_Master_RepeatedStart();
  2733  068A  120A  158A  2152  120A  118A  	fcall	_I2C_Master_RepeatedStart
  2734  068F                     l2947:
  2735                           
  2736                           ;MASTER_Proyecto.c: 325:         I2C_Master_Write(0xd1);
  2737  068F  30D1               	movlw	209
  2738  0690  00F3               	movwf	I2C_Master_Write@d
  2739  0691  3000               	movlw	0
  2740  0692  00F4               	movwf	I2C_Master_Write@d+1
  2741  0693  120A  158A  2164  120A  118A  	fcall	_I2C_Master_Write
  2742  0698                     l2949:
  2743                           
  2744                           ;MASTER_Proyecto.c: 326:         val = I2C_Master_Read(0);
  2745  0698  3000               	movlw	0
  2746  0699  00F3               	movwf	I2C_Master_Read@a
  2747  069A  00F4               	movwf	I2C_Master_Read@a+1
  2748  069B  120A  158A  2185  120A  118A  	fcall	_I2C_Master_Read
  2749  06A0  0873               	movf	?_I2C_Master_Read,w
  2750  06A1  1683               	bsf	3,5	;RP0=1, select bank1
  2751  06A2  1303               	bcf	3,6	;RP1=0, select bank1
  2752  06A3  00BB               	movwf	??_main^(0+128)
  2753  06A4  083B               	movf	??_main^(0+128),w
  2754  06A5  00B0               	movwf	_val^(0+128)
  2755  06A6                     l2951:
  2756                           
  2757                           ;MASTER_Proyecto.c: 327:         I2C_Master_Stop();
  2758  06A6  120A  118A  27F7  120A  118A  	fcall	_I2C_Master_Stop
  2759  06AB                     l2953:
  2760                           
  2761                           ;MASTER_Proyecto.c: 328:         _delay((unsigned long)((1)*(1000000/4000.0)));
  2762  06AB  3052               	movlw	82
  2763  06AC  1683               	bsf	3,5	;RP0=1, select bank1
  2764  06AD  1303               	bcf	3,6	;RP1=0, select bank1
  2765  06AE  00BB               	movwf	??_main^(0+128)
  2766  06AF                     u2457:
  2767  06AF  0BBB               	decfsz	??_main^(0+128),f
  2768  06B0  2EAF               	goto	u2457
  2769  06B1  0000               	nop
  2770  06B2                     l2955:
  2771                           
  2772                           ;MASTER_Proyecto.c: 331:         I2C_Master_Start();
  2773  06B2  120A  158A  215B  120A  118A  	fcall	_I2C_Master_Start
  2774  06B7                     l2957:
  2775                           
  2776                           ;MASTER_Proyecto.c: 332:         I2C_Master_Write(0xd0);
  2777  06B7  30D0               	movlw	208
  2778  06B8  00F3               	movwf	I2C_Master_Write@d
  2779  06B9  3000               	movlw	0
  2780  06BA  00F4               	movwf	I2C_Master_Write@d+1
  2781  06BB  120A  158A  2164  120A  118A  	fcall	_I2C_Master_Write
  2782  06C0                     l2959:
  2783                           
  2784                           ;MASTER_Proyecto.c: 333:         I2C_Master_Write(0x01);
  2785  06C0  3001               	movlw	1
  2786  06C1  00F3               	movwf	I2C_Master_Write@d
  2787  06C2  3000               	movlw	0
  2788  06C3  00F4               	movwf	I2C_Master_Write@d+1
  2789  06C4  120A  158A  2164  120A  118A  	fcall	_I2C_Master_Write
  2790  06C9                     l2961:
  2791                           
  2792                           ;MASTER_Proyecto.c: 334:         _delay((unsigned long)((1)*(1000000/4000.0)));
  2793  06C9  3052               	movlw	82
  2794  06CA  1683               	bsf	3,5	;RP0=1, select bank1
  2795  06CB  1303               	bcf	3,6	;RP1=0, select bank1
  2796  06CC  00BB               	movwf	??_main^(0+128)
  2797  06CD                     u2467:
  2798  06CD  0BBB               	decfsz	??_main^(0+128),f
  2799  06CE  2ECD               	goto	u2467
  2800  06CF  0000               	nop
  2801  06D0                     l2963:
  2802                           
  2803                           ;MASTER_Proyecto.c: 336:         I2C_Master_RepeatedStart();
  2804  06D0  120A  158A  2152  120A  118A  	fcall	_I2C_Master_RepeatedStart
  2805  06D5                     l2965:
  2806                           
  2807                           ;MASTER_Proyecto.c: 337:         I2C_Master_Write(0xd1);
  2808  06D5  30D1               	movlw	209
  2809  06D6  00F3               	movwf	I2C_Master_Write@d
  2810  06D7  3000               	movlw	0
  2811  06D8  00F4               	movwf	I2C_Master_Write@d+1
  2812  06D9  120A  158A  2164  120A  118A  	fcall	_I2C_Master_Write
  2813  06DE                     l2967:
  2814                           
  2815                           ;MASTER_Proyecto.c: 338:         val2 = I2C_Master_Read(0);
  2816  06DE  3000               	movlw	0
  2817  06DF  00F3               	movwf	I2C_Master_Read@a
  2818  06E0  00F4               	movwf	I2C_Master_Read@a+1
  2819  06E1  120A  158A  2185  120A  118A  	fcall	_I2C_Master_Read
  2820  06E6  0873               	movf	?_I2C_Master_Read,w
  2821  06E7  1683               	bsf	3,5	;RP0=1, select bank1
  2822  06E8  1303               	bcf	3,6	;RP1=0, select bank1
  2823  06E9  00BB               	movwf	??_main^(0+128)
  2824  06EA  083B               	movf	??_main^(0+128),w
  2825  06EB  00AF               	movwf	_val2^(0+128)
  2826  06EC                     l2969:
  2827                           
  2828                           ;MASTER_Proyecto.c: 339:         I2C_Master_Stop();
  2829  06EC  120A  118A  27F7  120A  118A  	fcall	_I2C_Master_Stop
  2830  06F1                     l2971:
  2831                           
  2832                           ;MASTER_Proyecto.c: 340:         _delay((unsigned long)((1)*(1000000/4000.0)));
  2833  06F1  3052               	movlw	82
  2834  06F2  1683               	bsf	3,5	;RP0=1, select bank1
  2835  06F3  1303               	bcf	3,6	;RP1=0, select bank1
  2836  06F4  00BB               	movwf	??_main^(0+128)
  2837  06F5                     u2477:
  2838  06F5  0BBB               	decfsz	??_main^(0+128),f
  2839  06F6  2EF5               	goto	u2477
  2840  06F7  0000               	nop
  2841  06F8                     l2973:
  2842                           
  2843                           ;MASTER_Proyecto.c: 343:         I2C_Master_Start();
  2844  06F8  120A  158A  215B  120A  118A  	fcall	_I2C_Master_Start
  2845  06FD                     l2975:
  2846                           
  2847                           ;MASTER_Proyecto.c: 344:         I2C_Master_Write(0xd0);
  2848  06FD  30D0               	movlw	208
  2849  06FE  00F3               	movwf	I2C_Master_Write@d
  2850  06FF  3000               	movlw	0
  2851  0700  00F4               	movwf	I2C_Master_Write@d+1
  2852  0701  120A  158A  2164  120A  118A  	fcall	_I2C_Master_Write
  2853  0706                     l2977:
  2854                           
  2855                           ;MASTER_Proyecto.c: 345:         I2C_Master_Write(0x02);
  2856  0706  3002               	movlw	2
  2857  0707  00F3               	movwf	I2C_Master_Write@d
  2858  0708  3000               	movlw	0
  2859  0709  00F4               	movwf	I2C_Master_Write@d+1
  2860  070A  120A  158A  2164  120A  118A  	fcall	_I2C_Master_Write
  2861  070F                     l2979:
  2862                           
  2863                           ;MASTER_Proyecto.c: 346:         _delay((unsigned long)((1)*(1000000/4000.0)));
  2864  070F  3052               	movlw	82
  2865  0710  1683               	bsf	3,5	;RP0=1, select bank1
  2866  0711  1303               	bcf	3,6	;RP1=0, select bank1
  2867  0712  00BB               	movwf	??_main^(0+128)
  2868  0713                     u2487:
  2869  0713  0BBB               	decfsz	??_main^(0+128),f
  2870  0714  2F13               	goto	u2487
  2871  0715  0000               	nop
  2872  0716                     l2981:
  2873                           
  2874                           ;MASTER_Proyecto.c: 348:         I2C_Master_RepeatedStart();
  2875  0716  120A  158A  2152  120A  118A  	fcall	_I2C_Master_RepeatedStart
  2876  071B                     l2983:
  2877                           
  2878                           ;MASTER_Proyecto.c: 349:         I2C_Master_Write(0xd1);
  2879  071B  30D1               	movlw	209
  2880  071C  00F3               	movwf	I2C_Master_Write@d
  2881  071D  3000               	movlw	0
  2882  071E  00F4               	movwf	I2C_Master_Write@d+1
  2883  071F  120A  158A  2164  120A  118A  	fcall	_I2C_Master_Write
  2884  0724                     l2985:
  2885                           
  2886                           ;MASTER_Proyecto.c: 350:         val3 = I2C_Master_Read(0);
  2887  0724  3000               	movlw	0
  2888  0725  00F3               	movwf	I2C_Master_Read@a
  2889  0726  00F4               	movwf	I2C_Master_Read@a+1
  2890  0727  120A  158A  2185  120A  118A  	fcall	_I2C_Master_Read
  2891  072C  0873               	movf	?_I2C_Master_Read,w
  2892  072D  1683               	bsf	3,5	;RP0=1, select bank1
  2893  072E  1303               	bcf	3,6	;RP1=0, select bank1
  2894  072F  00BB               	movwf	??_main^(0+128)
  2895  0730  083B               	movf	??_main^(0+128),w
  2896  0731  00AE               	movwf	_val3^(0+128)
  2897  0732                     l2987:
  2898                           
  2899                           ;MASTER_Proyecto.c: 351:         I2C_Master_Stop();
  2900  0732  120A  118A  27F7  120A  118A  	fcall	_I2C_Master_Stop
  2901  0737                     l2989:
  2902                           
  2903                           ;MASTER_Proyecto.c: 352:         _delay((unsigned long)((1)*(1000000/4000.0)));
  2904  0737  3052               	movlw	82
  2905  0738  1683               	bsf	3,5	;RP0=1, select bank1
  2906  0739  1303               	bcf	3,6	;RP1=0, select bank1
  2907  073A  00BB               	movwf	??_main^(0+128)
  2908  073B                     u2497:
  2909  073B  0BBB               	decfsz	??_main^(0+128),f
  2910  073C  2F3B               	goto	u2497
  2911  073D  0000               	nop
  2912  073E                     l2991:
  2913                           
  2914                           ;MASTER_Proyecto.c: 376:         if (cont == 1){
  2915  073E  1283               	bcf	3,5	;RP0=0, select bank0
  2916  073F  1303               	bcf	3,6	;RP1=0, select bank0
  2917  0740  0365               	decf	_cont,w
  2918  0741  1D03               	btfss	3,2
  2919  0742  2F44               	goto	u2191
  2920  0743  2F45               	goto	u2190
  2921  0744                     u2191:
  2922  0744  2F48               	goto	l2995
  2923  0745                     u2190:
  2924  0745                     l2993:
  2925                           
  2926                           ;MASTER_Proyecto.c: 377:            TXREG = data1;
  2927  0745  0866               	movf	_data1,w
  2928  0746  0099               	movwf	25	;volatile
  2929                           
  2930                           ;MASTER_Proyecto.c: 378:         }
  2931  0747  282C               	goto	l2625
  2932  0748                     l2995:
  2933  0748  3002               	movlw	2
  2934  0749  0665               	xorwf	_cont,w
  2935  074A  1D03               	btfss	3,2
  2936  074B  2F4D               	goto	u2201
  2937  074C  2F4E               	goto	u2200
  2938  074D                     u2201:
  2939  074D  2F51               	goto	l2999
  2940  074E                     u2200:
  2941  074E                     l2997:
  2942                           
  2943                           ;MASTER_Proyecto.c: 380:            TXREG = data2;
  2944  074E  087A               	movf	_data2,w
  2945  074F  0099               	movwf	25	;volatile
  2946                           
  2947                           ;MASTER_Proyecto.c: 381:         }
  2948  0750  282C               	goto	l2625
  2949  0751                     l2999:
  2950  0751  3003               	movlw	3
  2951  0752  0665               	xorwf	_cont,w
  2952  0753  1D03               	btfss	3,2
  2953  0754  2F56               	goto	u2211
  2954  0755  2F57               	goto	u2210
  2955  0756                     u2211:
  2956  0756  2F5A               	goto	l3003
  2957  0757                     u2210:
  2958  0757                     l3001:
  2959                           
  2960                           ;MASTER_Proyecto.c: 383:            TXREG = data3;
  2961  0757  0879               	movf	_data3,w
  2962  0758  0099               	movwf	25	;volatile
  2963                           
  2964                           ;MASTER_Proyecto.c: 384:         }
  2965  0759  282C               	goto	l2625
  2966  075A                     l3003:
  2967  075A  3004               	movlw	4
  2968  075B  0665               	xorwf	_cont,w
  2969  075C  1D03               	btfss	3,2
  2970  075D  2F5F               	goto	u2221
  2971  075E  2F60               	goto	u2220
  2972  075F                     u2221:
  2973  075F  2F63               	goto	l3007
  2974  0760                     u2220:
  2975  0760                     l3005:
  2976                           
  2977                           ;MASTER_Proyecto.c: 386:            TXREG = data4;
  2978  0760  0878               	movf	_data4,w
  2979  0761  0099               	movwf	25	;volatile
  2980                           
  2981                           ;MASTER_Proyecto.c: 387:         }
  2982  0762  282C               	goto	l2625
  2983  0763                     l3007:
  2984  0763  3005               	movlw	5
  2985  0764  0665               	xorwf	_cont,w
  2986  0765  1D03               	btfss	3,2
  2987  0766  2F68               	goto	u2231
  2988  0767  2F69               	goto	u2230
  2989  0768                     u2231:
  2990  0768  2F70               	goto	l3011
  2991  0769                     u2230:
  2992  0769                     l3009:
  2993                           
  2994                           ;MASTER_Proyecto.c: 389:            TXREG = temperatura;
  2995  0769  1683               	bsf	3,5	;RP0=1, select bank1
  2996  076A  1303               	bcf	3,6	;RP1=0, select bank1
  2997  076B  0831               	movf	_temperatura^(0+128),w
  2998  076C  1283               	bcf	3,5	;RP0=0, select bank0
  2999  076D  1303               	bcf	3,6	;RP1=0, select bank0
  3000  076E  0099               	movwf	25	;volatile
  3001                           
  3002                           ;MASTER_Proyecto.c: 390:         }
  3003  076F  282C               	goto	l2625
  3004  0770                     l3011:
  3005  0770  3006               	movlw	6
  3006  0771  0665               	xorwf	_cont,w
  3007  0772  1D03               	btfss	3,2
  3008  0773  2F75               	goto	u2241
  3009  0774  2F76               	goto	u2240
  3010  0775                     u2241:
  3011  0775  2F7D               	goto	l3015
  3012  0776                     u2240:
  3013  0776                     l3013:
  3014                           
  3015                           ;MASTER_Proyecto.c: 392:            TXREG = val;
  3016  0776  1683               	bsf	3,5	;RP0=1, select bank1
  3017  0777  1303               	bcf	3,6	;RP1=0, select bank1
  3018  0778  0830               	movf	_val^(0+128),w
  3019  0779  1283               	bcf	3,5	;RP0=0, select bank0
  3020  077A  1303               	bcf	3,6	;RP1=0, select bank0
  3021  077B  0099               	movwf	25	;volatile
  3022                           
  3023                           ;MASTER_Proyecto.c: 393:         }
  3024  077C  282C               	goto	l2625
  3025  077D                     l3015:
  3026  077D  3007               	movlw	7
  3027  077E  0665               	xorwf	_cont,w
  3028  077F  1D03               	btfss	3,2
  3029  0780  2F82               	goto	u2251
  3030  0781  2F83               	goto	u2250
  3031  0782                     u2251:
  3032  0782  2F8A               	goto	l3019
  3033  0783                     u2250:
  3034  0783                     l3017:
  3035                           
  3036                           ;MASTER_Proyecto.c: 395:            TXREG = val2;
  3037  0783  1683               	bsf	3,5	;RP0=1, select bank1
  3038  0784  1303               	bcf	3,6	;RP1=0, select bank1
  3039  0785  082F               	movf	_val2^(0+128),w
  3040  0786  1283               	bcf	3,5	;RP0=0, select bank0
  3041  0787  1303               	bcf	3,6	;RP1=0, select bank0
  3042  0788  0099               	movwf	25	;volatile
  3043                           
  3044                           ;MASTER_Proyecto.c: 396:         }
  3045  0789  282C               	goto	l2625
  3046  078A                     l3019:
  3047  078A  3008               	movlw	8
  3048  078B  0665               	xorwf	_cont,w
  3049  078C  1D03               	btfss	3,2
  3050  078D  2F8F               	goto	u2261
  3051  078E  2F90               	goto	u2260
  3052  078F                     u2261:
  3053  078F  2F97               	goto	l174
  3054  0790                     u2260:
  3055  0790                     l3021:
  3056                           
  3057                           ;MASTER_Proyecto.c: 398:            TXREG = val3;
  3058  0790  1683               	bsf	3,5	;RP0=1, select bank1
  3059  0791  1303               	bcf	3,6	;RP1=0, select bank1
  3060  0792  082E               	movf	_val3^(0+128),w
  3061  0793  1283               	bcf	3,5	;RP0=0, select bank0
  3062  0794  1303               	bcf	3,6	;RP1=0, select bank0
  3063  0795  0099               	movwf	25	;volatile
  3064  0796  282C               	goto	l2625
  3065  0797                     l174:
  3066  0797  282C               	goto	l2625
  3067  0798  120A  118A  280C   	ljmp	start
  3068  079B                     __end_of_main:
  3069                           
  3070                           	psect	text1
  3071  0A22                     __ptext1:	
  3072 ;; *************** function _setup *****************
  3073 ;; Defined at:
  3074 ;;		line 406 in file "MASTER_Proyecto.c"
  3075 ;; Parameters:    Size  Location     Type
  3076 ;;		None
  3077 ;; Auto vars:     Size  Location     Type
  3078 ;;		None
  3079 ;; Return value:  Size  Location     Type
  3080 ;;                  1    wreg      void 
  3081 ;; Registers used:
  3082 ;;		wreg, fsr0l, fsr0h, status,2, status,0, pclath, cstack
  3083 ;; Tracked objects:
  3084 ;;		On entry : 0/0
  3085 ;;		On exit  : 0/0
  3086 ;;		Unchanged: 0/0
  3087 ;; Data sizes:     COMMON   BANK0   BANK1   BANK3   BANK2
  3088 ;;      Params:         0       0       0       0       0
  3089 ;;      Locals:         0       0       0       0       0
  3090 ;;      Temps:          0       0       0       0       0
  3091 ;;      Totals:         0       0       0       0       0
  3092 ;;Total ram usage:        0 bytes
  3093 ;; Hardware stack levels used: 1
  3094 ;; Hardware stack levels required when called: 4
  3095 ;; This function calls:
  3096 ;;		_I2C_Master_Init
  3097 ;;		_init_UART
  3098 ;;		_init_osc_MHz
  3099 ;;		_tmr0_init
  3100 ;;		_tmr0_reload
  3101 ;; This function is called by:
  3102 ;;		_main
  3103 ;; This function uses a non-reentrant model
  3104 ;;
  3105                           
  3106  0A22                     _setup:	
  3107                           ;psect for function _setup
  3108                           
  3109  0A22                     l2489:	
  3110                           ;incstack = 0
  3111                           ; Regs used in _setup: [wreg-fsr0h+status,2+status,0+pclath+cstack]
  3112                           
  3113                           
  3114                           ;MASTER_Proyecto.c: 407:     ANSEL = 0;
  3115  0A22  1683               	bsf	3,5	;RP0=1, select bank3
  3116  0A23  1703               	bsf	3,6	;RP1=1, select bank3
  3117  0A24  0188               	clrf	8	;volatile
  3118                           
  3119                           ;MASTER_Proyecto.c: 408:     ANSELH = 0;
  3120  0A25  0189               	clrf	9	;volatile
  3121                           
  3122                           ;MASTER_Proyecto.c: 409:     TRISB = 0;
  3123  0A26  1683               	bsf	3,5	;RP0=1, select bank1
  3124  0A27  1303               	bcf	3,6	;RP1=0, select bank1
  3125  0A28  0186               	clrf	6	;volatile
  3126                           
  3127                           ;MASTER_Proyecto.c: 410:     TRISD = 0;
  3128  0A29  0188               	clrf	8	;volatile
  3129                           
  3130                           ;MASTER_Proyecto.c: 411:     PORTB = 0;
  3131  0A2A  1283               	bcf	3,5	;RP0=0, select bank0
  3132  0A2B  1303               	bcf	3,6	;RP1=0, select bank0
  3133  0A2C  0186               	clrf	6	;volatile
  3134                           
  3135                           ;MASTER_Proyecto.c: 412:     PORTD = 0;
  3136  0A2D  0188               	clrf	8	;volatile
  3137                           
  3138                           ;MASTER_Proyecto.c: 413:     PORTC = 0;
  3139  0A2E  0187               	clrf	7	;volatile
  3140  0A2F                     l2491:
  3141                           
  3142                           ;MASTER_Proyecto.c: 414:     TRISCbits.TRISC7 = 1;
  3143  0A2F  1683               	bsf	3,5	;RP0=1, select bank1
  3144  0A30  1303               	bcf	3,6	;RP1=0, select bank1
  3145  0A31  1787               	bsf	7,7	;volatile
  3146  0A32                     l2493:
  3147                           
  3148                           ;MASTER_Proyecto.c: 426:     init_osc_MHz (1);
  3149  0A32  3001               	movlw	1
  3150  0A33  120A  158A  21B5  120A  158A  	fcall	_init_osc_MHz
  3151  0A38                     l2495:
  3152                           
  3153                           ;MASTER_Proyecto.c: 428:     I2C_Master_Init(150000);
  3154  0A38  3000               	movlw	0
  3155  0A39  1283               	bcf	3,5	;RP0=0, select bank0
  3156  0A3A  1303               	bcf	3,6	;RP1=0, select bank0
  3157  0A3B  00B0               	movwf	I2C_Master_Init@c+3
  3158  0A3C  3002               	movlw	2
  3159  0A3D  00AF               	movwf	I2C_Master_Init@c+2
  3160  0A3E  3049               	movlw	73
  3161  0A3F  00AE               	movwf	I2C_Master_Init@c+1
  3162  0A40  30F0               	movlw	240
  3163  0A41  00AD               	movwf	I2C_Master_Init@c
  3164  0A42  120A  158A  21E8  120A  158A  	fcall	_I2C_Master_Init
  3165  0A47                     l2497:
  3166                           
  3167                           ;MASTER_Proyecto.c: 430:     init_UART();
  3168  0A47  120A  158A  216E  120A  158A  	fcall	_init_UART
  3169  0A4C                     l2499:
  3170                           
  3171                           ;MASTER_Proyecto.c: 432:     tmr0_init (7);
  3172  0A4C  3007               	movlw	7
  3173  0A4D  120A  118A  279B  120A  158A  	fcall	_tmr0_init
  3174  0A52                     l2501:
  3175                           
  3176                           ;MASTER_Proyecto.c: 433:     tmr0_reload();
  3177  0A52  120A  158A  2144  120A  158A  	fcall	_tmr0_reload
  3178  0A57                     l2503:
  3179                           
  3180                           ;MASTER_Proyecto.c: 435:     INTCONbits.GIE = 1;
  3181  0A57  178B               	bsf	11,7	;volatile
  3182  0A58                     l2505:
  3183                           
  3184                           ;MASTER_Proyecto.c: 436:     INTCONbits.PEIE = 1;
  3185  0A58  170B               	bsf	11,6	;volatile
  3186  0A59                     l2507:
  3187                           
  3188                           ;MASTER_Proyecto.c: 437:     PIE1bits.RCIE = 1;
  3189  0A59  1683               	bsf	3,5	;RP0=1, select bank1
  3190  0A5A  1303               	bcf	3,6	;RP1=0, select bank1
  3191  0A5B  168C               	bsf	12,5	;volatile
  3192  0A5C                     l185:
  3193  0A5C  0008               	return
  3194  0A5D                     __end_of_setup:
  3195                           
  3196                           	psect	text2
  3197  0944                     __ptext2:	
  3198 ;; *************** function _tmr0_reload *****************
  3199 ;; Defined at:
  3200 ;;		line 63 in file "TIMER0.c"
  3201 ;; Parameters:    Size  Location     Type
  3202 ;;		None
  3203 ;; Auto vars:     Size  Location     Type
  3204 ;;		None
  3205 ;; Return value:  Size  Location     Type
  3206 ;;                  1    wreg      void 
  3207 ;; Registers used:
  3208 ;;		wreg
  3209 ;; Tracked objects:
  3210 ;;		On entry : 0/0
  3211 ;;		On exit  : 0/0
  3212 ;;		Unchanged: 0/0
  3213 ;; Data sizes:     COMMON   BANK0   BANK1   BANK3   BANK2
  3214 ;;      Params:         0       0       0       0       0
  3215 ;;      Locals:         0       0       0       0       0
  3216 ;;      Temps:          0       0       0       0       0
  3217 ;;      Totals:         0       0       0       0       0
  3218 ;;Total ram usage:        0 bytes
  3219 ;; Hardware stack levels used: 1
  3220 ;; Hardware stack levels required when called: 2
  3221 ;; This function calls:
  3222 ;;		Nothing
  3223 ;; This function is called by:
  3224 ;;		_setup
  3225 ;; This function uses a non-reentrant model
  3226 ;;
  3227                           
  3228  0944                     _tmr0_reload:	
  3229                           ;psect for function _tmr0_reload
  3230                           
  3231  0944                     l1725:	
  3232                           ;incstack = 0
  3233                           ; Regs used in _tmr0_reload: [wreg]
  3234                           
  3235                           
  3236                           ;TIMER0.c: 65:   TMR0 = 12;;
  3237  0944  300C               	movlw	12
  3238  0945  1283               	bcf	3,5	;RP0=0, select bank0
  3239  0946  1303               	bcf	3,6	;RP1=0, select bank0
  3240  0947  0081               	movwf	1	;volatile
  3241  0948                     l1727:
  3242                           
  3243                           ;TIMER0.c: 66:   INTCONbits.T0IF = 0;
  3244  0948  110B               	bcf	11,2	;volatile
  3245  0949                     l208:
  3246  0949  0008               	return
  3247  094A                     __end_of_tmr0_reload:
  3248                           
  3249                           	psect	text3
  3250  079B                     __ptext3:	
  3251 ;; *************** function _tmr0_init *****************
  3252 ;; Defined at:
  3253 ;;		line 6 in file "TIMER0.c"
  3254 ;; Parameters:    Size  Location     Type
  3255 ;;  prescaler       1    wreg     unsigned char 
  3256 ;; Auto vars:     Size  Location     Type
  3257 ;;  prescaler       1    5[COMMON] unsigned char 
  3258 ;; Return value:  Size  Location     Type
  3259 ;;                  1    wreg      void 
  3260 ;; Registers used:
  3261 ;;		wreg, fsr0l, fsr0h, status,2, status,0
  3262 ;; Tracked objects:
  3263 ;;		On entry : 0/0
  3264 ;;		On exit  : 0/0
  3265 ;;		Unchanged: 0/0
  3266 ;; Data sizes:     COMMON   BANK0   BANK1   BANK3   BANK2
  3267 ;;      Params:         0       0       0       0       0
  3268 ;;      Locals:         1       0       0       0       0
  3269 ;;      Temps:          2       0       0       0       0
  3270 ;;      Totals:         3       0       0       0       0
  3271 ;;Total ram usage:        3 bytes
  3272 ;; Hardware stack levels used: 1
  3273 ;; Hardware stack levels required when called: 2
  3274 ;; This function calls:
  3275 ;;		Nothing
  3276 ;; This function is called by:
  3277 ;;		_setup
  3278 ;; This function uses a non-reentrant model
  3279 ;;
  3280                           
  3281  079B                     _tmr0_init:	
  3282                           ;psect for function _tmr0_init
  3283                           
  3284                           
  3285                           ;incstack = 0
  3286                           ; Regs used in _tmr0_init: [wreg-fsr0h+status,2+status,0]
  3287                           ;tmr0_init@prescaler stored from wreg
  3288  079B  00F5               	movwf	tmr0_init@prescaler
  3289  079C                     l1743:
  3290                           
  3291                           ;TIMER0.c: 6: void tmr0_init (uint8_t prescaler);TIMER0.c: 7: {;TIMER0.c: 8:     INTCONb
      +                          its.T0IE = 1;
  3292  079C  168B               	bsf	11,5	;volatile
  3293                           
  3294                           ;TIMER0.c: 10:     OPTION_REGbits.PSA = 0;
  3295  079D  1683               	bsf	3,5	;RP0=1, select bank1
  3296  079E  1303               	bcf	3,6	;RP1=0, select bank1
  3297  079F  1181               	bcf	1,3	;volatile
  3298                           
  3299                           ;TIMER0.c: 11:     OPTION_REGbits.T0CS = 0;
  3300  07A0  1281               	bcf	1,5	;volatile
  3301                           
  3302                           ;TIMER0.c: 12:     OPTION_REGbits.T0SE = 0;
  3303  07A1  1201               	bcf	1,4	;volatile
  3304                           
  3305                           ;TIMER0.c: 14:     switch(prescaler){
  3306  07A2  2FC7               	goto	l1745
  3307  07A3                     l195:	
  3308                           ;TIMER0.c: 15:         case 0:
  3309                           
  3310                           
  3311                           ;TIMER0.c: 16:             OPTION_REGbits.PS2 = 0;
  3312  07A3  1101               	bcf	1,2	;volatile
  3313                           
  3314                           ;TIMER0.c: 17:             OPTION_REGbits.PS1 = 0;
  3315  07A4  1081               	bcf	1,1	;volatile
  3316                           
  3317                           ;TIMER0.c: 18:             OPTION_REGbits.PS0 = 0;
  3318  07A5  1001               	bcf	1,0	;volatile
  3319                           
  3320                           ;TIMER0.c: 19:             break;
  3321  07A6  2FE9               	goto	l205
  3322  07A7                     l197:	
  3323                           ;TIMER0.c: 20:         case 1:
  3324                           
  3325                           
  3326                           ;TIMER0.c: 21:             OPTION_REGbits.PS2 = 0;
  3327  07A7  1101               	bcf	1,2	;volatile
  3328                           
  3329                           ;TIMER0.c: 22:             OPTION_REGbits.PS1 = 0;
  3330  07A8  1081               	bcf	1,1	;volatile
  3331                           
  3332                           ;TIMER0.c: 23:             OPTION_REGbits.PS0 = 1;
  3333  07A9  1401               	bsf	1,0	;volatile
  3334                           
  3335                           ;TIMER0.c: 24:             break;
  3336  07AA  2FE9               	goto	l205
  3337  07AB                     l198:	
  3338                           ;TIMER0.c: 25:         case 2:
  3339                           
  3340                           
  3341                           ;TIMER0.c: 26:             OPTION_REGbits.PS2 = 0;
  3342  07AB  1101               	bcf	1,2	;volatile
  3343                           
  3344                           ;TIMER0.c: 27:             OPTION_REGbits.PS1 = 1;
  3345  07AC  1481               	bsf	1,1	;volatile
  3346                           
  3347                           ;TIMER0.c: 28:             OPTION_REGbits.PS0 = 0;
  3348  07AD  1001               	bcf	1,0	;volatile
  3349                           
  3350                           ;TIMER0.c: 29:             break;
  3351  07AE  2FE9               	goto	l205
  3352  07AF                     l199:	
  3353                           ;TIMER0.c: 30:         case 3:
  3354                           
  3355                           
  3356                           ;TIMER0.c: 31:             OPTION_REGbits.PS2 = 0;
  3357  07AF  1101               	bcf	1,2	;volatile
  3358                           
  3359                           ;TIMER0.c: 32:             OPTION_REGbits.PS1 = 1;
  3360  07B0  1481               	bsf	1,1	;volatile
  3361                           
  3362                           ;TIMER0.c: 33:             OPTION_REGbits.PS0 = 1;
  3363  07B1  1401               	bsf	1,0	;volatile
  3364                           
  3365                           ;TIMER0.c: 34:             break;
  3366  07B2  2FE9               	goto	l205
  3367  07B3                     l200:	
  3368                           ;TIMER0.c: 35:         case 4:
  3369                           
  3370                           
  3371                           ;TIMER0.c: 36:             OPTION_REGbits.PS2 = 1;
  3372  07B3  1501               	bsf	1,2	;volatile
  3373                           
  3374                           ;TIMER0.c: 37:             OPTION_REGbits.PS1 = 0;
  3375  07B4  1081               	bcf	1,1	;volatile
  3376                           
  3377                           ;TIMER0.c: 38:             OPTION_REGbits.PS0 = 0;
  3378  07B5  1001               	bcf	1,0	;volatile
  3379                           
  3380                           ;TIMER0.c: 39:             break;
  3381  07B6  2FE9               	goto	l205
  3382  07B7                     l201:	
  3383                           ;TIMER0.c: 40:         case 5:
  3384                           
  3385                           
  3386                           ;TIMER0.c: 41:             OPTION_REGbits.PS2 = 1;
  3387  07B7  1501               	bsf	1,2	;volatile
  3388                           
  3389                           ;TIMER0.c: 42:             OPTION_REGbits.PS1 = 0;
  3390  07B8  1081               	bcf	1,1	;volatile
  3391                           
  3392                           ;TIMER0.c: 43:             OPTION_REGbits.PS0 = 1;
  3393  07B9  1401               	bsf	1,0	;volatile
  3394                           
  3395                           ;TIMER0.c: 44:             break;
  3396  07BA  2FE9               	goto	l205
  3397  07BB                     l202:	
  3398                           ;TIMER0.c: 45:         case 6:
  3399                           
  3400                           
  3401                           ;TIMER0.c: 46:             OPTION_REGbits.PS2 = 1;
  3402  07BB  1501               	bsf	1,2	;volatile
  3403                           
  3404                           ;TIMER0.c: 47:             OPTION_REGbits.PS1 = 1;
  3405  07BC  1481               	bsf	1,1	;volatile
  3406                           
  3407                           ;TIMER0.c: 48:             OPTION_REGbits.PS0 = 0;
  3408  07BD  1001               	bcf	1,0	;volatile
  3409                           
  3410                           ;TIMER0.c: 49:             break;
  3411  07BE  2FE9               	goto	l205
  3412  07BF                     l203:	
  3413                           ;TIMER0.c: 50:         case 7:
  3414                           
  3415                           
  3416                           ;TIMER0.c: 51:             OPTION_REGbits.PS2 = 1;
  3417  07BF  1501               	bsf	1,2	;volatile
  3418                           
  3419                           ;TIMER0.c: 52:             OPTION_REGbits.PS1 = 1;
  3420  07C0  1481               	bsf	1,1	;volatile
  3421                           
  3422                           ;TIMER0.c: 53:             OPTION_REGbits.PS0 = 1;
  3423  07C1  1401               	bsf	1,0	;volatile
  3424                           
  3425                           ;TIMER0.c: 54:             break;
  3426  07C2  2FE9               	goto	l205
  3427  07C3                     l204:	
  3428                           ;TIMER0.c: 55:         default:
  3429                           
  3430                           
  3431                           ;TIMER0.c: 56:             OPTION_REGbits.PS2 = 1;
  3432  07C3  1501               	bsf	1,2	;volatile
  3433                           
  3434                           ;TIMER0.c: 57:             OPTION_REGbits.PS1 = 1;
  3435  07C4  1481               	bsf	1,1	;volatile
  3436                           
  3437                           ;TIMER0.c: 58:             OPTION_REGbits.PS0 = 1;
  3438  07C5  1401               	bsf	1,0	;volatile
  3439                           
  3440                           ;TIMER0.c: 60:     }
  3441  07C6  2FE9               	goto	l205
  3442  07C7                     l1745:
  3443  07C7  0875               	movf	tmr0_init@prescaler,w
  3444  07C8  00F3               	movwf	??_tmr0_init
  3445  07C9  01F4               	clrf	??_tmr0_init+1
  3446                           
  3447                           ; Switch on 2 bytes has been partitioned into a top level switch of size 1, and 1 sub-sw
      +                          itches
  3448                           ; Switch size 1, requested type "simple"
  3449                           ; Number of cases is 1, Range of values is 0 to 0
  3450                           ; switch strategies available:
  3451                           ; Name         Instructions Cycles
  3452                           ; simple_byte            4     3 (average)
  3453                           ; direct_byte           11     8 (fixed)
  3454                           ; jumptable            260     6 (fixed)
  3455                           ;	Chosen strategy is simple_byte
  3456  07CA  0874               	movf	??_tmr0_init+1,w
  3457  07CB  3A00               	xorlw	0	; case 0
  3458  07CC  1903               	skipnz
  3459  07CD  2FCF               	goto	l3063
  3460  07CE  2FC3               	goto	l204
  3461  07CF                     l3063:
  3462                           
  3463                           ; Switch size 1, requested type "simple"
  3464                           ; Number of cases is 8, Range of values is 0 to 7
  3465                           ; switch strategies available:
  3466                           ; Name         Instructions Cycles
  3467                           ; simple_byte           25    13 (average)
  3468                           ; direct_byte           32     8 (fixed)
  3469                           ; jumptable            260     6 (fixed)
  3470                           ;	Chosen strategy is simple_byte
  3471  07CF  0873               	movf	??_tmr0_init,w
  3472  07D0  3A00               	xorlw	0	; case 0
  3473  07D1  1903               	skipnz
  3474  07D2  2FA3               	goto	l195
  3475  07D3  3A01               	xorlw	1	; case 1
  3476  07D4  1903               	skipnz
  3477  07D5  2FA7               	goto	l197
  3478  07D6  3A03               	xorlw	3	; case 2
  3479  07D7  1903               	skipnz
  3480  07D8  2FAB               	goto	l198
  3481  07D9  3A01               	xorlw	1	; case 3
  3482  07DA  1903               	skipnz
  3483  07DB  2FAF               	goto	l199
  3484  07DC  3A07               	xorlw	7	; case 4
  3485  07DD  1903               	skipnz
  3486  07DE  2FB3               	goto	l200
  3487  07DF  3A01               	xorlw	1	; case 5
  3488  07E0  1903               	skipnz
  3489  07E1  2FB7               	goto	l201
  3490  07E2  3A03               	xorlw	3	; case 6
  3491  07E3  1903               	skipnz
  3492  07E4  2FBB               	goto	l202
  3493  07E5  3A01               	xorlw	1	; case 7
  3494  07E6  1903               	skipnz
  3495  07E7  2FBF               	goto	l203
  3496  07E8  2FC3               	goto	l204
  3497  07E9                     l205:
  3498  07E9  0008               	return
  3499  07EA                     __end_of_tmr0_init:
  3500                           
  3501                           	psect	text4
  3502  09B5                     __ptext4:	
  3503 ;; *************** function _init_osc_MHz *****************
  3504 ;; Defined at:
  3505 ;;		line 8 in file "Oscilador.c"
  3506 ;; Parameters:    Size  Location     Type
  3507 ;;  freq            1    wreg     unsigned char 
  3508 ;; Auto vars:     Size  Location     Type
  3509 ;;  freq            1    5[COMMON] unsigned char 
  3510 ;; Return value:  Size  Location     Type
  3511 ;;                  1    wreg      void 
  3512 ;; Registers used:
  3513 ;;		wreg, fsr0l, fsr0h, status,2, status,0
  3514 ;; Tracked objects:
  3515 ;;		On entry : 0/0
  3516 ;;		On exit  : 0/0
  3517 ;;		Unchanged: 0/0
  3518 ;; Data sizes:     COMMON   BANK0   BANK1   BANK3   BANK2
  3519 ;;      Params:         0       0       0       0       0
  3520 ;;      Locals:         1       0       0       0       0
  3521 ;;      Temps:          2       0       0       0       0
  3522 ;;      Totals:         3       0       0       0       0
  3523 ;;Total ram usage:        3 bytes
  3524 ;; Hardware stack levels used: 1
  3525 ;; Hardware stack levels required when called: 2
  3526 ;; This function calls:
  3527 ;;		Nothing
  3528 ;; This function is called by:
  3529 ;;		_setup
  3530 ;; This function uses a non-reentrant model
  3531 ;;
  3532                           
  3533  09B5                     _init_osc_MHz:	
  3534                           ;psect for function _init_osc_MHz
  3535                           
  3536                           
  3537                           ;incstack = 0
  3538                           ; Regs used in _init_osc_MHz: [wreg-fsr0h+status,2+status,0]
  3539                           ;init_osc_MHz@freq stored from wreg
  3540  09B5  00F5               	movwf	init_osc_MHz@freq
  3541  09B6                     l1705:
  3542                           
  3543                           ;Oscilador.c: 9:     OSCCONbits.SCS = 1;
  3544  09B6  1683               	bsf	3,5	;RP0=1, select bank1
  3545  09B7  1303               	bcf	3,6	;RP1=0, select bank1
  3546  09B8  140F               	bsf	15,0	;volatile
  3547                           
  3548                           ;Oscilador.c: 11:     switch(freq){
  3549  09B9  29D1               	goto	l1719
  3550  09BA                     l1707:
  3551                           
  3552                           ;Oscilador.c: 13:             OSCCONbits.IRCF = 0b100;
  3553  09BA  080F               	movf	15,w	;volatile
  3554  09BB  398F               	andlw	-113
  3555  09BC  3840               	iorlw	64
  3556  09BD  008F               	movwf	15	;volatile
  3557                           
  3558                           ;Oscilador.c: 14:             break;
  3559  09BE  29E7               	goto	l25
  3560  09BF                     l1709:
  3561                           
  3562                           ;Oscilador.c: 17:             OSCCONbits.IRCF = 0b101;
  3563  09BF  080F               	movf	15,w	;volatile
  3564  09C0  398F               	andlw	-113
  3565  09C1  3850               	iorlw	80
  3566  09C2  008F               	movwf	15	;volatile
  3567                           
  3568                           ;Oscilador.c: 18:             break;
  3569  09C3  29E7               	goto	l25
  3570  09C4                     l1711:
  3571                           
  3572                           ;Oscilador.c: 21:             OSCCONbits.IRCF = 0b110;
  3573  09C4  080F               	movf	15,w	;volatile
  3574  09C5  398F               	andlw	-113
  3575  09C6  3860               	iorlw	96
  3576  09C7  008F               	movwf	15	;volatile
  3577                           
  3578                           ;Oscilador.c: 22:             break;
  3579  09C8  29E7               	goto	l25
  3580  09C9                     l1713:
  3581                           
  3582                           ;Oscilador.c: 25:             OSCCONbits.IRCF = 0b111;
  3583  09C9  3070               	movlw	112
  3584  09CA  048F               	iorwf	15,f	;volatile
  3585                           
  3586                           ;Oscilador.c: 26:             break;
  3587  09CB  29E7               	goto	l25
  3588  09CC                     l1715:
  3589                           
  3590                           ;Oscilador.c: 29:             OSCCONbits.IRCF = 0b110;
  3591  09CC  080F               	movf	15,w	;volatile
  3592  09CD  398F               	andlw	-113
  3593  09CE  3860               	iorlw	96
  3594  09CF  008F               	movwf	15	;volatile
  3595                           
  3596                           ;Oscilador.c: 30:             break;
  3597  09D0  29E7               	goto	l25
  3598  09D1                     l1719:
  3599  09D1  0875               	movf	init_osc_MHz@freq,w
  3600  09D2  00F3               	movwf	??_init_osc_MHz
  3601  09D3  01F4               	clrf	??_init_osc_MHz+1
  3602                           
  3603                           ; Switch on 2 bytes has been partitioned into a top level switch of size 1, and 1 sub-sw
      +                          itches
  3604                           ; Switch size 1, requested type "simple"
  3605                           ; Number of cases is 1, Range of values is 0 to 0
  3606                           ; switch strategies available:
  3607                           ; Name         Instructions Cycles
  3608                           ; simple_byte            4     3 (average)
  3609                           ; direct_byte           11     8 (fixed)
  3610                           ; jumptable            260     6 (fixed)
  3611                           ;	Chosen strategy is simple_byte
  3612  09D4  0874               	movf	??_init_osc_MHz+1,w
  3613  09D5  3A00               	xorlw	0	; case 0
  3614  09D6  1903               	skipnz
  3615  09D7  29D9               	goto	l3065
  3616  09D8  29CC               	goto	l1715
  3617  09D9                     l3065:
  3618                           
  3619                           ; Switch size 1, requested type "simple"
  3620                           ; Number of cases is 4, Range of values is 1 to 8
  3621                           ; switch strategies available:
  3622                           ; Name         Instructions Cycles
  3623                           ; simple_byte           13     7 (average)
  3624                           ; direct_byte           35    11 (fixed)
  3625                           ; jumptable            263     9 (fixed)
  3626                           ;	Chosen strategy is simple_byte
  3627  09D9  0873               	movf	??_init_osc_MHz,w
  3628  09DA  3A01               	xorlw	1	; case 1
  3629  09DB  1903               	skipnz
  3630  09DC  29BA               	goto	l1707
  3631  09DD  3A03               	xorlw	3	; case 2
  3632  09DE  1903               	skipnz
  3633  09DF  29BF               	goto	l1709
  3634  09E0  3A06               	xorlw	6	; case 4
  3635  09E1  1903               	skipnz
  3636  09E2  29C4               	goto	l1711
  3637  09E3  3A0C               	xorlw	12	; case 8
  3638  09E4  1903               	skipnz
  3639  09E5  29C9               	goto	l1713
  3640  09E6  29CC               	goto	l1715
  3641  09E7                     l25:
  3642  09E7  0008               	return
  3643  09E8                     __end_of_init_osc_MHz:
  3644                           
  3645                           	psect	text5
  3646  096E                     __ptext5:	
  3647 ;; *************** function _init_UART *****************
  3648 ;; Defined at:
  3649 ;;		line 4 in file "UART.c"
  3650 ;; Parameters:    Size  Location     Type
  3651 ;;		None
  3652 ;; Auto vars:     Size  Location     Type
  3653 ;;		None
  3654 ;; Return value:  Size  Location     Type
  3655 ;;                  1    wreg      void 
  3656 ;; Registers used:
  3657 ;;		wreg, status,2
  3658 ;; Tracked objects:
  3659 ;;		On entry : 0/0
  3660 ;;		On exit  : 0/0
  3661 ;;		Unchanged: 0/0
  3662 ;; Data sizes:     COMMON   BANK0   BANK1   BANK3   BANK2
  3663 ;;      Params:         0       0       0       0       0
  3664 ;;      Locals:         0       0       0       0       0
  3665 ;;      Temps:          0       0       0       0       0
  3666 ;;      Totals:         0       0       0       0       0
  3667 ;;Total ram usage:        0 bytes
  3668 ;; Hardware stack levels used: 1
  3669 ;; Hardware stack levels required when called: 2
  3670 ;; This function calls:
  3671 ;;		Nothing
  3672 ;; This function is called by:
  3673 ;;		_setup
  3674 ;; This function uses a non-reentrant model
  3675 ;;
  3676                           
  3677  096E                     _init_UART:	
  3678                           ;psect for function _init_UART
  3679                           
  3680  096E                     l1689:	
  3681                           ;incstack = 0
  3682                           ; Regs used in _init_UART: [wreg+status,2]
  3683                           
  3684                           
  3685                           ;UART.c: 7:     TXSTAbits.SYNC = 0;
  3686  096E  1683               	bsf	3,5	;RP0=1, select bank1
  3687  096F  1303               	bcf	3,6	;RP1=0, select bank1
  3688  0970  1218               	bcf	24,4	;volatile
  3689                           
  3690                           ;UART.c: 8:     TXSTAbits.BRGH = 1;
  3691  0971  1518               	bsf	24,2	;volatile
  3692                           
  3693                           ;UART.c: 9:     BAUDCTLbits.BRG16 = 1;
  3694  0972  1683               	bsf	3,5	;RP0=1, select bank3
  3695  0973  1703               	bsf	3,6	;RP1=1, select bank3
  3696  0974  1587               	bsf	7,3	;volatile
  3697  0975                     l1691:
  3698                           
  3699                           ;UART.c: 11:     SPBRG = 25;
  3700  0975  3019               	movlw	25
  3701  0976  1683               	bsf	3,5	;RP0=1, select bank1
  3702  0977  1303               	bcf	3,6	;RP1=0, select bank1
  3703  0978  0099               	movwf	25	;volatile
  3704  0979                     l1693:
  3705                           
  3706                           ;UART.c: 12:     SPBRGH = 0;
  3707  0979  019A               	clrf	26	;volatile
  3708  097A                     l1695:
  3709                           
  3710                           ;UART.c: 14:     RCSTAbits.SPEN = 1;
  3711  097A  1283               	bcf	3,5	;RP0=0, select bank0
  3712  097B  1303               	bcf	3,6	;RP1=0, select bank0
  3713  097C  1798               	bsf	24,7	;volatile
  3714  097D                     l1697:
  3715                           
  3716                           ;UART.c: 15:     TXSTAbits.TX9 = 0;
  3717  097D  1683               	bsf	3,5	;RP0=1, select bank1
  3718  097E  1303               	bcf	3,6	;RP1=0, select bank1
  3719  097F  1318               	bcf	24,6	;volatile
  3720  0980                     l1699:
  3721                           
  3722                           ;UART.c: 16:     TXSTAbits.TXEN = 1;
  3723  0980  1698               	bsf	24,5	;volatile
  3724  0981                     l1701:
  3725                           
  3726                           ;UART.c: 17:     RCSTAbits.CREN = 1;
  3727  0981  1283               	bcf	3,5	;RP0=0, select bank0
  3728  0982  1303               	bcf	3,6	;RP1=0, select bank0
  3729  0983  1618               	bsf	24,4	;volatile
  3730  0984                     l13:
  3731  0984  0008               	return
  3732  0985                     __end_of_init_UART:
  3733                           
  3734                           	psect	text6
  3735  09E8                     __ptext6:	
  3736 ;; *************** function _I2C_Master_Init *****************
  3737 ;; Defined at:
  3738 ;;		line 14 in file "I2C.c"
  3739 ;; Parameters:    Size  Location     Type
  3740 ;;  c               4   13[BANK0 ] const unsigned long 
  3741 ;; Auto vars:     Size  Location     Type
  3742 ;;		None
  3743 ;; Return value:  Size  Location     Type
  3744 ;;                  1    wreg      void 
  3745 ;; Registers used:
  3746 ;;		wreg, status,2, status,0, pclath, cstack
  3747 ;; Tracked objects:
  3748 ;;		On entry : 0/0
  3749 ;;		On exit  : 0/0
  3750 ;;		Unchanged: 0/0
  3751 ;; Data sizes:     COMMON   BANK0   BANK1   BANK3   BANK2
  3752 ;;      Params:         0       4       0       0       0
  3753 ;;      Locals:         0       0       0       0       0
  3754 ;;      Temps:          4       0       0       0       0
  3755 ;;      Totals:         4       4       0       0       0
  3756 ;;Total ram usage:        8 bytes
  3757 ;; Hardware stack levels used: 1
  3758 ;; Hardware stack levels required when called: 3
  3759 ;; This function calls:
  3760 ;;		___lldiv
  3761 ;; This function is called by:
  3762 ;;		_setup
  3763 ;; This function uses a non-reentrant model
  3764 ;;
  3765                           
  3766  09E8                     _I2C_Master_Init:	
  3767                           ;psect for function _I2C_Master_Init
  3768                           
  3769  09E8                     l2459:	
  3770                           ;incstack = 0
  3771                           ; Regs used in _I2C_Master_Init: [wreg+status,2+status,0+pclath+cstack]
  3772                           
  3773                           
  3774                           ;I2C.c: 14: void I2C_Master_Init(const unsigned long c);I2C.c: 15: {;I2C.c: 16:     SSPC
      +                          ON = 0b00101000;
  3775  09E8  3028               	movlw	40
  3776  09E9  1283               	bcf	3,5	;RP0=0, select bank0
  3777  09EA  1303               	bcf	3,6	;RP1=0, select bank0
  3778  09EB  0094               	movwf	20	;volatile
  3779  09EC                     l2461:
  3780                           
  3781                           ;I2C.c: 17:     SSPCON2 = 0;
  3782  09EC  1683               	bsf	3,5	;RP0=1, select bank1
  3783  09ED  1303               	bcf	3,6	;RP1=0, select bank1
  3784  09EE  0191               	clrf	17	;volatile
  3785  09EF                     l2463:
  3786                           
  3787                           ;I2C.c: 18:     SSPADD = (8000000/(4*c))-1;
  3788  09EF  1283               	bcf	3,5	;RP0=0, select bank0
  3789  09F0  1303               	bcf	3,6	;RP1=0, select bank0
  3790  09F1  082D               	movf	I2C_Master_Init@c,w
  3791  09F2  00F4               	movwf	??_I2C_Master_Init
  3792  09F3  082E               	movf	I2C_Master_Init@c+1,w
  3793  09F4  00F5               	movwf	??_I2C_Master_Init+1
  3794  09F5  082F               	movf	I2C_Master_Init@c+2,w
  3795  09F6  00F6               	movwf	??_I2C_Master_Init+2
  3796  09F7  0830               	movf	I2C_Master_Init@c+3,w
  3797  09F8  00F7               	movwf	??_I2C_Master_Init+3
  3798  09F9  3002               	movlw	2
  3799  09FA                     u1725:
  3800  09FA  1003               	clrc
  3801  09FB  0DF4               	rlf	??_I2C_Master_Init,f
  3802  09FC  0DF5               	rlf	??_I2C_Master_Init+1,f
  3803  09FD  0DF6               	rlf	??_I2C_Master_Init+2,f
  3804  09FE  0DF7               	rlf	??_I2C_Master_Init+3,f
  3805  09FF                     u1720:
  3806  09FF  3EFF               	addlw	-1
  3807  0A00  1D03               	skipz
  3808  0A01  29FA               	goto	u1725
  3809  0A02  0877               	movf	??_I2C_Master_Init+3,w
  3810  0A03  00A3               	movwf	___lldiv@divisor+3
  3811  0A04  0876               	movf	??_I2C_Master_Init+2,w
  3812  0A05  00A2               	movwf	___lldiv@divisor+2
  3813  0A06  0875               	movf	??_I2C_Master_Init+1,w
  3814  0A07  00A1               	movwf	___lldiv@divisor+1
  3815  0A08  0874               	movf	??_I2C_Master_Init,w
  3816  0A09  00A0               	movwf	___lldiv@divisor
  3817  0A0A  3000               	movlw	0
  3818  0A0B  00A7               	movwf	___lldiv@dividend+3
  3819  0A0C  307A               	movlw	122
  3820  0A0D  00A6               	movwf	___lldiv@dividend+2
  3821  0A0E  3012               	movlw	18
  3822  0A0F  00A5               	movwf	___lldiv@dividend+1
  3823  0A10  3000               	movlw	0
  3824  0A11  00A4               	movwf	___lldiv@dividend
  3825  0A12  120A  158A  22A5  120A  158A  	fcall	___lldiv
  3826  0A17  1283               	bcf	3,5	;RP0=0, select bank0
  3827  0A18  1303               	bcf	3,6	;RP1=0, select bank0
  3828  0A19  0820               	movf	?___lldiv,w
  3829  0A1A  3EFF               	addlw	255
  3830  0A1B  1683               	bsf	3,5	;RP0=1, select bank1
  3831  0A1C  1303               	bcf	3,6	;RP1=0, select bank1
  3832  0A1D  0093               	movwf	19	;volatile
  3833  0A1E                     l2465:
  3834                           
  3835                           ;I2C.c: 19:     SSPSTAT = 0;
  3836  0A1E  0194               	clrf	20	;volatile
  3837  0A1F                     l2467:
  3838                           
  3839                           ;I2C.c: 20:     TRISCbits.TRISC3 = 1;
  3840  0A1F  1587               	bsf	7,3	;volatile
  3841  0A20                     l2469:
  3842                           
  3843                           ;I2C.c: 21:     TRISCbits.TRISC4 = 1;
  3844  0A20  1607               	bsf	7,4	;volatile
  3845  0A21                     l237:
  3846  0A21  0008               	return
  3847  0A22                     __end_of_I2C_Master_Init:
  3848                           
  3849                           	psect	text7
  3850  0BE4                     __ptext7:	
  3851 ;; *************** function _calculateTemp *****************
  3852 ;; Defined at:
  3853 ;;		line 3 in file "BMP280.c"
  3854 ;; Parameters:    Size  Location     Type
  3855 ;;  temp            4    8[BANK0 ] unsigned long 
  3856 ;;  dig1            2   12[BANK0 ] unsigned int 
  3857 ;;  dig2            2   14[BANK0 ] unsigned int 
  3858 ;;  dig3            2   16[BANK0 ] unsigned int 
  3859 ;; Auto vars:     Size  Location     Type
  3860 ;;  t_fine          4   46[BANK0 ] unsigned long 
  3861 ;;  var2            4   42[BANK0 ] unsigned long 
  3862 ;;  var1            4   38[BANK0 ] unsigned long 
  3863 ;;  T               2   54[BANK0 ] int 
  3864 ;; Return value:  Size  Location     Type
  3865 ;;                  2    8[BANK0 ] int 
  3866 ;; Registers used:
  3867 ;;		wreg, status,2, status,0, pclath, cstack
  3868 ;; Tracked objects:
  3869 ;;		On entry : 0/0
  3870 ;;		On exit  : 0/0
  3871 ;;		Unchanged: 0/0
  3872 ;; Data sizes:     COMMON   BANK0   BANK1   BANK3   BANK2
  3873 ;;      Params:         0      10       0       0       0
  3874 ;;      Locals:         0      18       0       0       0
  3875 ;;      Temps:          0      20       0       0       0
  3876 ;;      Totals:         0      48       0       0       0
  3877 ;;Total ram usage:       48 bytes
  3878 ;; Hardware stack levels used: 1
  3879 ;; Hardware stack levels required when called: 3
  3880 ;; This function calls:
  3881 ;;		___lmul
  3882 ;; This function is called by:
  3883 ;;		_main
  3884 ;; This function uses a non-reentrant model
  3885 ;;
  3886                           
  3887  0BE4                     _calculateTemp:	
  3888                           ;psect for function _calculateTemp
  3889                           
  3890  0BE4                     l2615:	
  3891                           ;incstack = 0
  3892                           ; Regs used in _calculateTemp: [wreg+status,2+status,0+pclath+cstack]
  3893                           
  3894                           
  3895                           ;BMP280.c: 4:   uint32_t var1, var2;;BMP280.c: 6:   var1 = ((((temp >> 3) - ((uint32_t)d
      +                          ig1 << 1))) *((uint32_t)dig2)) >>11;
  3896  0BE4  1283               	bcf	3,5	;RP0=0, select bank0
  3897  0BE5  1303               	bcf	3,6	;RP1=0, select bank0
  3898  0BE6  082C               	movf	calculateTemp@dig1,w
  3899  0BE7  00B2               	movwf	??_calculateTemp
  3900  0BE8  082D               	movf	calculateTemp@dig1+1,w
  3901  0BE9  00B3               	movwf	??_calculateTemp+1
  3902  0BEA  01B4               	clrf	??_calculateTemp+2
  3903  0BEB  01B5               	clrf	??_calculateTemp+3
  3904  0BEC  3001               	movlw	1
  3905  0BED                     u2015:
  3906  0BED  1003               	clrc
  3907  0BEE  0DB2               	rlf	??_calculateTemp,f
  3908  0BEF  0DB3               	rlf	??_calculateTemp+1,f
  3909  0BF0  0DB4               	rlf	??_calculateTemp+2,f
  3910  0BF1  0DB5               	rlf	??_calculateTemp+3,f
  3911  0BF2                     u2010:
  3912  0BF2  3EFF               	addlw	-1
  3913  0BF3  1D03               	skipz
  3914  0BF4  2BED               	goto	u2015
  3915  0BF5  0828               	movf	calculateTemp@temp,w
  3916  0BF6  00B6               	movwf	??_calculateTemp+4
  3917  0BF7  0829               	movf	calculateTemp@temp+1,w
  3918  0BF8  00B7               	movwf	??_calculateTemp+5
  3919  0BF9  082A               	movf	calculateTemp@temp+2,w
  3920  0BFA  00B8               	movwf	??_calculateTemp+6
  3921  0BFB  082B               	movf	calculateTemp@temp+3,w
  3922  0BFC  00B9               	movwf	??_calculateTemp+7
  3923  0BFD  3003               	movlw	3
  3924  0BFE                     u2025:
  3925  0BFE  1003               	clrc
  3926  0BFF  0CB9               	rrf	??_calculateTemp+7,f
  3927  0C00  0CB8               	rrf	??_calculateTemp+6,f
  3928  0C01  0CB7               	rrf	??_calculateTemp+5,f
  3929  0C02  0CB6               	rrf	??_calculateTemp+4,f
  3930  0C03                     u2020:
  3931  0C03  3EFF               	addlw	-1
  3932  0C04  1D03               	skipz
  3933  0C05  2BFE               	goto	u2025
  3934  0C06  0832               	movf	??_calculateTemp,w
  3935  0C07  02B6               	subwf	??_calculateTemp+4,f
  3936  0C08  0833               	movf	??_calculateTemp+1,w
  3937  0C09  1C03               	skipc
  3938  0C0A  0F33               	incfsz	??_calculateTemp+1,w
  3939  0C0B  2C0D               	goto	u2031
  3940  0C0C  2C0E               	goto	u2032
  3941  0C0D                     u2031:
  3942  0C0D  02B7               	subwf	??_calculateTemp+5,f
  3943  0C0E                     u2032:
  3944  0C0E  0834               	movf	??_calculateTemp+2,w
  3945  0C0F  1C03               	skipc
  3946  0C10  0F34               	incfsz	??_calculateTemp+2,w
  3947  0C11  2C13               	goto	u2033
  3948  0C12  2C14               	goto	u2034
  3949  0C13                     u2033:
  3950  0C13  02B8               	subwf	??_calculateTemp+6,f
  3951  0C14                     u2034:
  3952  0C14  0835               	movf	??_calculateTemp+3,w
  3953  0C15  1C03               	skipc
  3954  0C16  0F35               	incfsz	??_calculateTemp+3,w
  3955  0C17  2C19               	goto	u2035
  3956  0C18  2C1A               	goto	u2036
  3957  0C19                     u2035:
  3958  0C19  02B9               	subwf	??_calculateTemp+7,f
  3959  0C1A                     u2036:
  3960  0C1A  0839               	movf	??_calculateTemp+7,w
  3961  0C1B  00A3               	movwf	___lmul@multiplier+3
  3962  0C1C  0838               	movf	??_calculateTemp+6,w
  3963  0C1D  00A2               	movwf	___lmul@multiplier+2
  3964  0C1E  0837               	movf	??_calculateTemp+5,w
  3965  0C1F  00A1               	movwf	___lmul@multiplier+1
  3966  0C20  0836               	movf	??_calculateTemp+4,w
  3967  0C21  00A0               	movwf	___lmul@multiplier
  3968  0C22  082E               	movf	calculateTemp@dig2,w
  3969  0C23  00A4               	movwf	___lmul@multiplicand
  3970  0C24  082F               	movf	calculateTemp@dig2+1,w
  3971  0C25  00A5               	movwf	___lmul@multiplicand+1
  3972  0C26  01A6               	clrf	___lmul@multiplicand+2
  3973  0C27  01A7               	clrf	___lmul@multiplicand+3
  3974  0C28  120A  158A  225D  120A  158A  	fcall	___lmul
  3975  0C2D  1283               	bcf	3,5	;RP0=0, select bank0
  3976  0C2E  1303               	bcf	3,6	;RP1=0, select bank0
  3977  0C2F  0820               	movf	?___lmul,w
  3978  0C30  00BA               	movwf	??_calculateTemp+8
  3979  0C31  0821               	movf	?___lmul+1,w
  3980  0C32  00BB               	movwf	??_calculateTemp+9
  3981  0C33  0822               	movf	?___lmul+2,w
  3982  0C34  00BC               	movwf	??_calculateTemp+10
  3983  0C35  0823               	movf	?___lmul+3,w
  3984  0C36  00BD               	movwf	??_calculateTemp+11
  3985  0C37  300B               	movlw	11
  3986  0C38                     u2045:
  3987  0C38  1003               	clrc
  3988  0C39  0CBD               	rrf	??_calculateTemp+11,f
  3989  0C3A  0CBC               	rrf	??_calculateTemp+10,f
  3990  0C3B  0CBB               	rrf	??_calculateTemp+9,f
  3991  0C3C  0CBA               	rrf	??_calculateTemp+8,f
  3992  0C3D                     u2040:
  3993  0C3D  3EFF               	addlw	-1
  3994  0C3E  1D03               	skipz
  3995  0C3F  2C38               	goto	u2045
  3996  0C40  083D               	movf	??_calculateTemp+11,w
  3997  0C41  00C9               	movwf	calculateTemp@var1+3
  3998  0C42  083C               	movf	??_calculateTemp+10,w
  3999  0C43  00C8               	movwf	calculateTemp@var1+2
  4000  0C44  083B               	movf	??_calculateTemp+9,w
  4001  0C45  00C7               	movwf	calculateTemp@var1+1
  4002  0C46  083A               	movf	??_calculateTemp+8,w
  4003  0C47  00C6               	movwf	calculateTemp@var1
  4004                           
  4005                           ;BMP280.c: 8:   var2 = (((((temp >> 4) - ((uint32_t)dig1)) *((temp >> 4) - ((uint32_t)di
      +                          g1))) >> 12) *
  4006  0C48  082C               	movf	calculateTemp@dig1,w
  4007  0C49  00B2               	movwf	??_calculateTemp
  4008  0C4A  082D               	movf	calculateTemp@dig1+1,w
  4009  0C4B  00B3               	movwf	??_calculateTemp+1
  4010  0C4C  01B4               	clrf	??_calculateTemp+2
  4011  0C4D  01B5               	clrf	??_calculateTemp+3
  4012  0C4E  0828               	movf	calculateTemp@temp,w
  4013  0C4F  00B6               	movwf	??_calculateTemp+4
  4014  0C50  0829               	movf	calculateTemp@temp+1,w
  4015  0C51  00B7               	movwf	??_calculateTemp+5
  4016  0C52  082A               	movf	calculateTemp@temp+2,w
  4017  0C53  00B8               	movwf	??_calculateTemp+6
  4018  0C54  082B               	movf	calculateTemp@temp+3,w
  4019  0C55  00B9               	movwf	??_calculateTemp+7
  4020  0C56  3004               	movlw	4
  4021  0C57                     u2055:
  4022  0C57  1003               	clrc
  4023  0C58  0CB9               	rrf	??_calculateTemp+7,f
  4024  0C59  0CB8               	rrf	??_calculateTemp+6,f
  4025  0C5A  0CB7               	rrf	??_calculateTemp+5,f
  4026  0C5B  0CB6               	rrf	??_calculateTemp+4,f
  4027  0C5C                     u2050:
  4028  0C5C  3EFF               	addlw	-1
  4029  0C5D  1D03               	skipz
  4030  0C5E  2C57               	goto	u2055
  4031  0C5F  0832               	movf	??_calculateTemp,w
  4032  0C60  02B6               	subwf	??_calculateTemp+4,f
  4033  0C61  0833               	movf	??_calculateTemp+1,w
  4034  0C62  1C03               	skipc
  4035  0C63  0F33               	incfsz	??_calculateTemp+1,w
  4036  0C64  2C66               	goto	u2061
  4037  0C65  2C67               	goto	u2062
  4038  0C66                     u2061:
  4039  0C66  02B7               	subwf	??_calculateTemp+5,f
  4040  0C67                     u2062:
  4041  0C67  0834               	movf	??_calculateTemp+2,w
  4042  0C68  1C03               	skipc
  4043  0C69  0F34               	incfsz	??_calculateTemp+2,w
  4044  0C6A  2C6C               	goto	u2063
  4045  0C6B  2C6D               	goto	u2064
  4046  0C6C                     u2063:
  4047  0C6C  02B8               	subwf	??_calculateTemp+6,f
  4048  0C6D                     u2064:
  4049  0C6D  0835               	movf	??_calculateTemp+3,w
  4050  0C6E  1C03               	skipc
  4051  0C6F  0F35               	incfsz	??_calculateTemp+3,w
  4052  0C70  2C72               	goto	u2065
  4053  0C71  2C73               	goto	u2066
  4054  0C72                     u2065:
  4055  0C72  02B9               	subwf	??_calculateTemp+7,f
  4056  0C73                     u2066:
  4057  0C73  0839               	movf	??_calculateTemp+7,w
  4058  0C74  00A7               	movwf	___lmul@multiplicand+3
  4059  0C75  0838               	movf	??_calculateTemp+6,w
  4060  0C76  00A6               	movwf	___lmul@multiplicand+2
  4061  0C77  0837               	movf	??_calculateTemp+5,w
  4062  0C78  00A5               	movwf	___lmul@multiplicand+1
  4063  0C79  0836               	movf	??_calculateTemp+4,w
  4064  0C7A  00A4               	movwf	___lmul@multiplicand
  4065  0C7B  082C               	movf	calculateTemp@dig1,w
  4066  0C7C  00BA               	movwf	??_calculateTemp+8
  4067  0C7D  082D               	movf	calculateTemp@dig1+1,w
  4068  0C7E  00BB               	movwf	??_calculateTemp+9
  4069  0C7F  01BC               	clrf	??_calculateTemp+10
  4070  0C80  01BD               	clrf	??_calculateTemp+11
  4071  0C81  0828               	movf	calculateTemp@temp,w
  4072  0C82  00BE               	movwf	??_calculateTemp+12
  4073  0C83  0829               	movf	calculateTemp@temp+1,w
  4074  0C84  00BF               	movwf	??_calculateTemp+13
  4075  0C85  082A               	movf	calculateTemp@temp+2,w
  4076  0C86  00C0               	movwf	??_calculateTemp+14
  4077  0C87  082B               	movf	calculateTemp@temp+3,w
  4078  0C88  00C1               	movwf	??_calculateTemp+15
  4079  0C89  3004               	movlw	4
  4080  0C8A                     u2075:
  4081  0C8A  1003               	clrc
  4082  0C8B  0CC1               	rrf	??_calculateTemp+15,f
  4083  0C8C  0CC0               	rrf	??_calculateTemp+14,f
  4084  0C8D  0CBF               	rrf	??_calculateTemp+13,f
  4085  0C8E  0CBE               	rrf	??_calculateTemp+12,f
  4086  0C8F                     u2070:
  4087  0C8F  3EFF               	addlw	-1
  4088  0C90  1D03               	skipz
  4089  0C91  2C8A               	goto	u2075
  4090  0C92  083A               	movf	??_calculateTemp+8,w
  4091  0C93  02BE               	subwf	??_calculateTemp+12,f
  4092  0C94  083B               	movf	??_calculateTemp+9,w
  4093  0C95  1C03               	skipc
  4094  0C96  0F3B               	incfsz	??_calculateTemp+9,w
  4095  0C97  2C99               	goto	u2081
  4096  0C98  2C9A               	goto	u2082
  4097  0C99                     u2081:
  4098  0C99  02BF               	subwf	??_calculateTemp+13,f
  4099  0C9A                     u2082:
  4100  0C9A  083C               	movf	??_calculateTemp+10,w
  4101  0C9B  1C03               	skipc
  4102  0C9C  0F3C               	incfsz	??_calculateTemp+10,w
  4103  0C9D  2C9F               	goto	u2083
  4104  0C9E  2CA0               	goto	u2084
  4105  0C9F                     u2083:
  4106  0C9F  02C0               	subwf	??_calculateTemp+14,f
  4107  0CA0                     u2084:
  4108  0CA0  083D               	movf	??_calculateTemp+11,w
  4109  0CA1  1C03               	skipc
  4110  0CA2  0F3D               	incfsz	??_calculateTemp+11,w
  4111  0CA3  2CA5               	goto	u2085
  4112  0CA4  2CA6               	goto	u2086
  4113  0CA5                     u2085:
  4114  0CA5  02C1               	subwf	??_calculateTemp+15,f
  4115  0CA6                     u2086:
  4116  0CA6  0841               	movf	??_calculateTemp+15,w
  4117  0CA7  00A3               	movwf	___lmul@multiplier+3
  4118  0CA8  0840               	movf	??_calculateTemp+14,w
  4119  0CA9  00A2               	movwf	___lmul@multiplier+2
  4120  0CAA  083F               	movf	??_calculateTemp+13,w
  4121  0CAB  00A1               	movwf	___lmul@multiplier+1
  4122  0CAC  083E               	movf	??_calculateTemp+12,w
  4123  0CAD  00A0               	movwf	___lmul@multiplier
  4124  0CAE  120A  158A  225D  120A  158A  	fcall	___lmul
  4125  0CB3  1283               	bcf	3,5	;RP0=0, select bank0
  4126  0CB4  1303               	bcf	3,6	;RP1=0, select bank0
  4127  0CB5  0820               	movf	?___lmul,w
  4128  0CB6  00C2               	movwf	??_calculateTemp+16
  4129  0CB7  0821               	movf	?___lmul+1,w
  4130  0CB8  00C3               	movwf	??_calculateTemp+17
  4131  0CB9  0822               	movf	?___lmul+2,w
  4132  0CBA  00C4               	movwf	??_calculateTemp+18
  4133  0CBB  0823               	movf	?___lmul+3,w
  4134  0CBC  00C5               	movwf	??_calculateTemp+19
  4135  0CBD  300C               	movlw	12
  4136  0CBE                     u2095:
  4137  0CBE  1003               	clrc
  4138  0CBF  0CC5               	rrf	??_calculateTemp+19,f
  4139  0CC0  0CC4               	rrf	??_calculateTemp+18,f
  4140  0CC1  0CC3               	rrf	??_calculateTemp+17,f
  4141  0CC2  0CC2               	rrf	??_calculateTemp+16,f
  4142  0CC3                     u2090:
  4143  0CC3  3EFF               	addlw	-1
  4144  0CC4  1D03               	skipz
  4145  0CC5  2CBE               	goto	u2095
  4146  0CC6  0845               	movf	??_calculateTemp+19,w
  4147  0CC7  00D5               	movwf	_calculateTemp$1153+3
  4148  0CC8  0844               	movf	??_calculateTemp+18,w
  4149  0CC9  00D4               	movwf	_calculateTemp$1153+2
  4150  0CCA  0843               	movf	??_calculateTemp+17,w
  4151  0CCB  00D3               	movwf	_calculateTemp$1153+1
  4152  0CCC  0842               	movf	??_calculateTemp+16,w
  4153  0CCD  00D2               	movwf	_calculateTemp$1153
  4154                           
  4155                           ;BMP280.c: 8:   var2 = (((((temp >> 4) - ((uint32_t)dig1)) *((temp >> 4) - ((uint32_t)di
      +                          g1))) >> 12) *
  4156  0CCE  0855               	movf	_calculateTemp$1153+3,w
  4157  0CCF  00A3               	movwf	___lmul@multiplier+3
  4158  0CD0  0854               	movf	_calculateTemp$1153+2,w
  4159  0CD1  00A2               	movwf	___lmul@multiplier+2
  4160  0CD2  0853               	movf	_calculateTemp$1153+1,w
  4161  0CD3  00A1               	movwf	___lmul@multiplier+1
  4162  0CD4  0852               	movf	_calculateTemp$1153,w
  4163  0CD5  00A0               	movwf	___lmul@multiplier
  4164  0CD6  0830               	movf	calculateTemp@dig3,w
  4165  0CD7  00A4               	movwf	___lmul@multiplicand
  4166  0CD8  0831               	movf	calculateTemp@dig3+1,w
  4167  0CD9  00A5               	movwf	___lmul@multiplicand+1
  4168  0CDA  01A6               	clrf	___lmul@multiplicand+2
  4169  0CDB  01A7               	clrf	___lmul@multiplicand+3
  4170  0CDC  120A  158A  225D  120A  158A  	fcall	___lmul
  4171  0CE1  1283               	bcf	3,5	;RP0=0, select bank0
  4172  0CE2  1303               	bcf	3,6	;RP1=0, select bank0
  4173  0CE3  0820               	movf	?___lmul,w
  4174  0CE4  00B2               	movwf	??_calculateTemp
  4175  0CE5  0821               	movf	?___lmul+1,w
  4176  0CE6  00B3               	movwf	??_calculateTemp+1
  4177  0CE7  0822               	movf	?___lmul+2,w
  4178  0CE8  00B4               	movwf	??_calculateTemp+2
  4179  0CE9  0823               	movf	?___lmul+3,w
  4180  0CEA  00B5               	movwf	??_calculateTemp+3
  4181  0CEB  300E               	movlw	14
  4182  0CEC                     u2105:
  4183  0CEC  1003               	clrc
  4184  0CED  0CB5               	rrf	??_calculateTemp+3,f
  4185  0CEE  0CB4               	rrf	??_calculateTemp+2,f
  4186  0CEF  0CB3               	rrf	??_calculateTemp+1,f
  4187  0CF0  0CB2               	rrf	??_calculateTemp,f
  4188  0CF1                     u2100:
  4189  0CF1  3EFF               	addlw	-1
  4190  0CF2  1D03               	skipz
  4191  0CF3  2CEC               	goto	u2105
  4192  0CF4  0835               	movf	??_calculateTemp+3,w
  4193  0CF5  00CD               	movwf	calculateTemp@var2+3
  4194  0CF6  0834               	movf	??_calculateTemp+2,w
  4195  0CF7  00CC               	movwf	calculateTemp@var2+2
  4196  0CF8  0833               	movf	??_calculateTemp+1,w
  4197  0CF9  00CB               	movwf	calculateTemp@var2+1
  4198  0CFA  0832               	movf	??_calculateTemp,w
  4199  0CFB  00CA               	movwf	calculateTemp@var2
  4200  0CFC                     l2617:
  4201                           
  4202                           ;BMP280.c: 11:   uint32_t t_fine = var1 + var2;
  4203  0CFC  0846               	movf	calculateTemp@var1,w
  4204  0CFD  074A               	addwf	calculateTemp@var2,w
  4205  0CFE  00B2               	movwf	??_calculateTemp
  4206  0CFF  3000               	movlw	0
  4207  0D00  1803               	skipnc
  4208  0D01  3001               	movlw	1
  4209  0D02  0747               	addwf	calculateTemp@var1+1,w
  4210  0D03  01B4               	clrf	??_calculateTemp+2
  4211  0D04  1803               	skipnc
  4212  0D05  0AB4               	incf	??_calculateTemp+2,f
  4213  0D06  074B               	addwf	calculateTemp@var2+1,w
  4214  0D07  00B3               	movwf	??_calculateTemp+1
  4215  0D08  1803               	skipnc
  4216  0D09  0AB4               	incf	??_calculateTemp+2,f
  4217  0D0A  0848               	movf	calculateTemp@var1+2,w
  4218  0D0B  0734               	addwf	??_calculateTemp+2,w
  4219  0D0C  01B5               	clrf	??_calculateTemp+3
  4220  0D0D  1803               	skipnc
  4221  0D0E  0AB5               	incf	??_calculateTemp+3,f
  4222  0D0F  074C               	addwf	calculateTemp@var2+2,w
  4223  0D10  00B4               	movwf	??_calculateTemp+2
  4224  0D11  1803               	skipnc
  4225  0D12  0AB5               	incf	??_calculateTemp+3,f
  4226  0D13  0849               	movf	calculateTemp@var1+3,w
  4227  0D14  0735               	addwf	??_calculateTemp+3,w
  4228  0D15  074D               	addwf	calculateTemp@var2+3,w
  4229  0D16  00B5               	movwf	??_calculateTemp+3
  4230  0D17  0835               	movf	??_calculateTemp+3,w
  4231  0D18  00D1               	movwf	calculateTemp@t_fine+3
  4232  0D19  0834               	movf	??_calculateTemp+2,w
  4233  0D1A  00D0               	movwf	calculateTemp@t_fine+2
  4234  0D1B  0833               	movf	??_calculateTemp+1,w
  4235  0D1C  00CF               	movwf	calculateTemp@t_fine+1
  4236  0D1D  0832               	movf	??_calculateTemp,w
  4237  0D1E  00CE               	movwf	calculateTemp@t_fine
  4238  0D1F                     l2619:
  4239                           
  4240                           ;BMP280.c: 13:   int T = (t_fine * 5 + 128) >> 8;
  4241  0D1F  3080               	movlw	128
  4242  0D20  00B2               	movwf	??_calculateTemp
  4243  0D21  3000               	movlw	0
  4244  0D22  00B3               	movwf	??_calculateTemp+1
  4245  0D23  3000               	movlw	0
  4246  0D24  00B4               	movwf	??_calculateTemp+2
  4247  0D25  3000               	movlw	0
  4248  0D26  00B5               	movwf	??_calculateTemp+3
  4249  0D27  0851               	movf	calculateTemp@t_fine+3,w
  4250  0D28  00A3               	movwf	___lmul@multiplier+3
  4251  0D29  0850               	movf	calculateTemp@t_fine+2,w
  4252  0D2A  00A2               	movwf	___lmul@multiplier+2
  4253  0D2B  084F               	movf	calculateTemp@t_fine+1,w
  4254  0D2C  00A1               	movwf	___lmul@multiplier+1
  4255  0D2D  084E               	movf	calculateTemp@t_fine,w
  4256  0D2E  00A0               	movwf	___lmul@multiplier
  4257  0D2F  3000               	movlw	0
  4258  0D30  00A7               	movwf	___lmul@multiplicand+3
  4259  0D31  3000               	movlw	0
  4260  0D32  00A6               	movwf	___lmul@multiplicand+2
  4261  0D33  3000               	movlw	0
  4262  0D34  00A5               	movwf	___lmul@multiplicand+1
  4263  0D35  3005               	movlw	5
  4264  0D36  00A4               	movwf	___lmul@multiplicand
  4265  0D37  120A  158A  225D  120A  158A  	fcall	___lmul
  4266  0D3C  1283               	bcf	3,5	;RP0=0, select bank0
  4267  0D3D  1303               	bcf	3,6	;RP1=0, select bank0
  4268  0D3E  0820               	movf	?___lmul,w
  4269  0D3F  07B2               	addwf	??_calculateTemp,f
  4270  0D40  0821               	movf	?___lmul+1,w
  4271  0D41  1803               	skipnc
  4272  0D42  0F21               	incfsz	?___lmul+1,w
  4273  0D43  2D45               	goto	u2110
  4274  0D44  2D46               	goto	u2111
  4275  0D45                     u2110:
  4276  0D45  07B3               	addwf	??_calculateTemp+1,f
  4277  0D46                     u2111:
  4278  0D46  0822               	movf	?___lmul+2,w
  4279  0D47  1803               	skipnc
  4280  0D48  0F22               	incfsz	?___lmul+2,w
  4281  0D49  2D4B               	goto	u2112
  4282  0D4A  2D4C               	goto	u2113
  4283  0D4B                     u2112:
  4284  0D4B  07B4               	addwf	??_calculateTemp+2,f
  4285  0D4C                     u2113:
  4286  0D4C  0823               	movf	?___lmul+3,w
  4287  0D4D  1803               	skipnc
  4288  0D4E  0A23               	incf	?___lmul+3,w
  4289  0D4F  07B5               	addwf	??_calculateTemp+3,f
  4290  0D50  3008               	movlw	8
  4291  0D51                     u2125:
  4292  0D51  1003               	clrc
  4293  0D52  0CB5               	rrf	??_calculateTemp+3,f
  4294  0D53  0CB4               	rrf	??_calculateTemp+2,f
  4295  0D54  0CB3               	rrf	??_calculateTemp+1,f
  4296  0D55  0CB2               	rrf	??_calculateTemp,f
  4297  0D56                     u2120:
  4298  0D56  3EFF               	addlw	-1
  4299  0D57  1D03               	skipz
  4300  0D58  2D51               	goto	u2125
  4301  0D59  0833               	movf	??_calculateTemp+1,w
  4302  0D5A  00D7               	movwf	calculateTemp@T+1
  4303  0D5B  0832               	movf	??_calculateTemp,w
  4304  0D5C  00D6               	movwf	calculateTemp@T
  4305                           
  4306                           ;BMP280.c: 15:   return T;
  4307  0D5D  0857               	movf	calculateTemp@T+1,w
  4308  0D5E  00A9               	movwf	?_calculateTemp+1
  4309  0D5F  0856               	movf	calculateTemp@T,w
  4310  0D60  00A8               	movwf	?_calculateTemp
  4311  0D61                     l266:
  4312  0D61  0008               	return
  4313  0D62                     __end_of_calculateTemp:
  4314                           
  4315                           	psect	text8
  4316  0D62                     __ptext8:	
  4317 ;; *************** function _calculateLux *****************
  4318 ;; Defined at:
  4319 ;;		line 3 in file "tsl2561.c"
  4320 ;; Parameters:    Size  Location     Type
  4321 ;;  broadband       2   13[BANK0 ] unsigned int 
  4322 ;;  ir              2   15[BANK0 ] unsigned int 
  4323 ;; Auto vars:     Size  Location     Type
  4324 ;;  ratio           4   49[BANK0 ] unsigned long 
  4325 ;;  channel0        4   45[BANK0 ] unsigned long 
  4326 ;;  channel1        4   41[BANK0 ] unsigned long 
  4327 ;;  chScale         4   37[BANK0 ] unsigned long 
  4328 ;;  temp            4   29[BANK0 ] unsigned long 
  4329 ;;  ratio1          4   25[BANK0 ] unsigned long 
  4330 ;;  lux             4   21[BANK0 ] unsigned long 
  4331 ;;  m               2   35[BANK0 ] unsigned int 
  4332 ;;  b               2   33[BANK0 ] unsigned int 
  4333 ;;  clipThreshol    2    0        unsigned int 
  4334 ;; Return value:  Size  Location     Type
  4335 ;;                  4   13[BANK0 ] unsigned long 
  4336 ;; Registers used:
  4337 ;;		wreg, status,2, status,0, pclath, cstack
  4338 ;; Tracked objects:
  4339 ;;		On entry : 0/0
  4340 ;;		On exit  : 0/0
  4341 ;;		Unchanged: 0/0
  4342 ;; Data sizes:     COMMON   BANK0   BANK1   BANK3   BANK2
  4343 ;;      Params:         0       4       0       0       0
  4344 ;;      Locals:         0      32       0       0       0
  4345 ;;      Temps:          0       4       0       0       0
  4346 ;;      Totals:         0      40       0       0       0
  4347 ;;Total ram usage:       40 bytes
  4348 ;; Hardware stack levels used: 1
  4349 ;; Hardware stack levels required when called: 3
  4350 ;; This function calls:
  4351 ;;		___lldiv
  4352 ;;		___lmul
  4353 ;; This function is called by:
  4354 ;;		_main
  4355 ;; This function uses a non-reentrant model
  4356 ;;
  4357                           
  4358  0D62                     _calculateLux:	
  4359                           ;psect for function _calculateLux
  4360                           
  4361  0D62                     l2543:	
  4362                           ;incstack = 0
  4363                           ; Regs used in _calculateLux: [wreg+status,2+status,0+pclath+cstack]
  4364                           
  4365                           
  4366                           ;tsl2561.c: 12:   if ((broadband > clipThreshold) || (ir > clipThreshold)) {
  4367  0D62  3013               	movlw	19
  4368  0D63  1283               	bcf	3,5	;RP0=0, select bank0
  4369  0D64  1303               	bcf	3,6	;RP1=0, select bank0
  4370  0D65  022E               	subwf	calculateLux@broadband+1,w
  4371  0D66  3025               	movlw	37
  4372  0D67  1903               	skipnz
  4373  0D68  022D               	subwf	calculateLux@broadband,w
  4374  0D69  1803               	skipnc
  4375  0D6A  2D6C               	goto	u1811
  4376  0D6B  2D6D               	goto	u1810
  4377  0D6C                     u1811:
  4378  0D6C  2D76               	goto	l2547
  4379  0D6D                     u1810:
  4380  0D6D                     l2545:
  4381  0D6D  3013               	movlw	19
  4382  0D6E  0230               	subwf	calculateLux@ir+1,w
  4383  0D6F  3025               	movlw	37
  4384  0D70  1903               	skipnz
  4385  0D71  022F               	subwf	calculateLux@ir,w
  4386  0D72  1C03               	skipc
  4387  0D73  2D75               	goto	u1821
  4388  0D74  2D76               	goto	u1820
  4389  0D75                     u1821:
  4390  0D75  2D7F               	goto	l2551
  4391  0D76                     u1820:
  4392  0D76                     l2547:
  4393                           
  4394                           ;tsl2561.c: 13:     return 65535;
  4395  0D76  3000               	movlw	0
  4396  0D77  00B0               	movwf	?_calculateLux+3
  4397  0D78  3000               	movlw	0
  4398  0D79  00AF               	movwf	?_calculateLux+2
  4399  0D7A  30FF               	movlw	255
  4400  0D7B  00AE               	movwf	?_calculateLux+1
  4401  0D7C  30FF               	movlw	255
  4402  0D7D  00AD               	movwf	?_calculateLux
  4403  0D7E  2FFF               	goto	l272
  4404  0D7F                     l2551:
  4405                           
  4406                           ;tsl2561.c: 16:   chScale = (0x7517);
  4407  0D7F  3000               	movlw	0
  4408  0D80  00C8               	movwf	calculateLux@chScale+3
  4409  0D81  3000               	movlw	0
  4410  0D82  00C7               	movwf	calculateLux@chScale+2
  4411  0D83  3075               	movlw	117
  4412  0D84  00C6               	movwf	calculateLux@chScale+1
  4413  0D85  3017               	movlw	23
  4414  0D86  00C5               	movwf	calculateLux@chScale
  4415  0D87                     l2553:
  4416                           
  4417                           ;tsl2561.c: 17:   chScale = chScale<<4;
  4418  0D87  0845               	movf	calculateLux@chScale,w
  4419  0D88  00B1               	movwf	??_calculateLux
  4420  0D89  0846               	movf	calculateLux@chScale+1,w
  4421  0D8A  00B2               	movwf	??_calculateLux+1
  4422  0D8B  0847               	movf	calculateLux@chScale+2,w
  4423  0D8C  00B3               	movwf	??_calculateLux+2
  4424  0D8D  0848               	movf	calculateLux@chScale+3,w
  4425  0D8E  00B4               	movwf	??_calculateLux+3
  4426  0D8F  3004               	movlw	4
  4427  0D90                     u1835:
  4428  0D90  1003               	clrc
  4429  0D91  0DB1               	rlf	??_calculateLux,f
  4430  0D92  0DB2               	rlf	??_calculateLux+1,f
  4431  0D93  0DB3               	rlf	??_calculateLux+2,f
  4432  0D94  0DB4               	rlf	??_calculateLux+3,f
  4433  0D95                     u1830:
  4434  0D95  3EFF               	addlw	-1
  4435  0D96  1D03               	skipz
  4436  0D97  2D90               	goto	u1835
  4437  0D98  0834               	movf	??_calculateLux+3,w
  4438  0D99  00C8               	movwf	calculateLux@chScale+3
  4439  0D9A  0833               	movf	??_calculateLux+2,w
  4440  0D9B  00C7               	movwf	calculateLux@chScale+2
  4441  0D9C  0832               	movf	??_calculateLux+1,w
  4442  0D9D  00C6               	movwf	calculateLux@chScale+1
  4443  0D9E  0831               	movf	??_calculateLux,w
  4444  0D9F  00C5               	movwf	calculateLux@chScale
  4445  0DA0                     l2555:
  4446                           
  4447                           ;tsl2561.c: 19:   channel0 = (broadband * chScale) >> (10);
  4448  0DA0  082D               	movf	calculateLux@broadband,w
  4449  0DA1  00A0               	movwf	___lmul@multiplier
  4450  0DA2  082E               	movf	calculateLux@broadband+1,w
  4451  0DA3  00A1               	movwf	___lmul@multiplier+1
  4452  0DA4  01A2               	clrf	___lmul@multiplier+2
  4453  0DA5  01A3               	clrf	___lmul@multiplier+3
  4454  0DA6  0848               	movf	calculateLux@chScale+3,w
  4455  0DA7  00A7               	movwf	___lmul@multiplicand+3
  4456  0DA8  0847               	movf	calculateLux@chScale+2,w
  4457  0DA9  00A6               	movwf	___lmul@multiplicand+2
  4458  0DAA  0846               	movf	calculateLux@chScale+1,w
  4459  0DAB  00A5               	movwf	___lmul@multiplicand+1
  4460  0DAC  0845               	movf	calculateLux@chScale,w
  4461  0DAD  00A4               	movwf	___lmul@multiplicand
  4462  0DAE  120A  158A  225D  120A  158A  	fcall	___lmul
  4463  0DB3  1283               	bcf	3,5	;RP0=0, select bank0
  4464  0DB4  1303               	bcf	3,6	;RP1=0, select bank0
  4465  0DB5  0820               	movf	?___lmul,w
  4466  0DB6  00B1               	movwf	??_calculateLux
  4467  0DB7  0821               	movf	?___lmul+1,w
  4468  0DB8  00B2               	movwf	??_calculateLux+1
  4469  0DB9  0822               	movf	?___lmul+2,w
  4470  0DBA  00B3               	movwf	??_calculateLux+2
  4471  0DBB  0823               	movf	?___lmul+3,w
  4472  0DBC  00B4               	movwf	??_calculateLux+3
  4473  0DBD  300A               	movlw	10
  4474  0DBE                     u1845:
  4475  0DBE  1003               	clrc
  4476  0DBF  0CB4               	rrf	??_calculateLux+3,f
  4477  0DC0  0CB3               	rrf	??_calculateLux+2,f
  4478  0DC1  0CB2               	rrf	??_calculateLux+1,f
  4479  0DC2  0CB1               	rrf	??_calculateLux,f
  4480  0DC3                     u1840:
  4481  0DC3  3EFF               	addlw	-1
  4482  0DC4  1D03               	skipz
  4483  0DC5  2DBE               	goto	u1845
  4484  0DC6  0834               	movf	??_calculateLux+3,w
  4485  0DC7  00D0               	movwf	calculateLux@channel0+3
  4486  0DC8  0833               	movf	??_calculateLux+2,w
  4487  0DC9  00CF               	movwf	calculateLux@channel0+2
  4488  0DCA  0832               	movf	??_calculateLux+1,w
  4489  0DCB  00CE               	movwf	calculateLux@channel0+1
  4490  0DCC  0831               	movf	??_calculateLux,w
  4491  0DCD  00CD               	movwf	calculateLux@channel0
  4492  0DCE                     l2557:
  4493                           
  4494                           ;tsl2561.c: 20:   channel1 = (ir * chScale) >> (10);
  4495  0DCE  082F               	movf	calculateLux@ir,w
  4496  0DCF  00A0               	movwf	___lmul@multiplier
  4497  0DD0  0830               	movf	calculateLux@ir+1,w
  4498  0DD1  00A1               	movwf	___lmul@multiplier+1
  4499  0DD2  01A2               	clrf	___lmul@multiplier+2
  4500  0DD3  01A3               	clrf	___lmul@multiplier+3
  4501  0DD4  0848               	movf	calculateLux@chScale+3,w
  4502  0DD5  00A7               	movwf	___lmul@multiplicand+3
  4503  0DD6  0847               	movf	calculateLux@chScale+2,w
  4504  0DD7  00A6               	movwf	___lmul@multiplicand+2
  4505  0DD8  0846               	movf	calculateLux@chScale+1,w
  4506  0DD9  00A5               	movwf	___lmul@multiplicand+1
  4507  0DDA  0845               	movf	calculateLux@chScale,w
  4508  0DDB  00A4               	movwf	___lmul@multiplicand
  4509  0DDC  120A  158A  225D  120A  158A  	fcall	___lmul
  4510  0DE1  1283               	bcf	3,5	;RP0=0, select bank0
  4511  0DE2  1303               	bcf	3,6	;RP1=0, select bank0
  4512  0DE3  0820               	movf	?___lmul,w
  4513  0DE4  00B1               	movwf	??_calculateLux
  4514  0DE5  0821               	movf	?___lmul+1,w
  4515  0DE6  00B2               	movwf	??_calculateLux+1
  4516  0DE7  0822               	movf	?___lmul+2,w
  4517  0DE8  00B3               	movwf	??_calculateLux+2
  4518  0DE9  0823               	movf	?___lmul+3,w
  4519  0DEA  00B4               	movwf	??_calculateLux+3
  4520  0DEB  300A               	movlw	10
  4521  0DEC                     u1855:
  4522  0DEC  1003               	clrc
  4523  0DED  0CB4               	rrf	??_calculateLux+3,f
  4524  0DEE  0CB3               	rrf	??_calculateLux+2,f
  4525  0DEF  0CB2               	rrf	??_calculateLux+1,f
  4526  0DF0  0CB1               	rrf	??_calculateLux,f
  4527  0DF1                     u1850:
  4528  0DF1  3EFF               	addlw	-1
  4529  0DF2  1D03               	skipz
  4530  0DF3  2DEC               	goto	u1855
  4531  0DF4  0834               	movf	??_calculateLux+3,w
  4532  0DF5  00CC               	movwf	calculateLux@channel1+3
  4533  0DF6  0833               	movf	??_calculateLux+2,w
  4534  0DF7  00CB               	movwf	calculateLux@channel1+2
  4535  0DF8  0832               	movf	??_calculateLux+1,w
  4536  0DF9  00CA               	movwf	calculateLux@channel1+1
  4537  0DFA  0831               	movf	??_calculateLux,w
  4538  0DFB  00C9               	movwf	calculateLux@channel1
  4539  0DFC                     l2559:
  4540                           
  4541                           ;tsl2561.c: 22:   unsigned long ratio1 = 0;
  4542  0DFC  3000               	movlw	0
  4543  0DFD  00BC               	movwf	calculateLux@ratio1+3
  4544  0DFE  3000               	movlw	0
  4545  0DFF  00BB               	movwf	calculateLux@ratio1+2
  4546  0E00  3000               	movlw	0
  4547  0E01  00BA               	movwf	calculateLux@ratio1+1
  4548  0E02  3000               	movlw	0
  4549  0E03  00B9               	movwf	calculateLux@ratio1
  4550  0E04                     l2561:
  4551                           
  4552                           ;tsl2561.c: 23:   if (channel0 != 0)
  4553  0E04  0850               	movf	calculateLux@channel0+3,w
  4554  0E05  044F               	iorwf	calculateLux@channel0+2,w
  4555  0E06  044E               	iorwf	calculateLux@channel0+1,w
  4556  0E07  044D               	iorwf	calculateLux@channel0,w
  4557  0E08  1903               	skipnz
  4558  0E09  2E0B               	goto	u1861
  4559  0E0A  2E0C               	goto	u1860
  4560  0E0B                     u1861:
  4561  0E0B  2E3C               	goto	l2565
  4562  0E0C                     u1860:
  4563  0E0C                     l2563:
  4564                           
  4565                           ;tsl2561.c: 24:     ratio1 = (channel1 << ((9) + 1)) / channel0;
  4566  0E0C  0850               	movf	calculateLux@channel0+3,w
  4567  0E0D  00A3               	movwf	___lldiv@divisor+3
  4568  0E0E  084F               	movf	calculateLux@channel0+2,w
  4569  0E0F  00A2               	movwf	___lldiv@divisor+2
  4570  0E10  084E               	movf	calculateLux@channel0+1,w
  4571  0E11  00A1               	movwf	___lldiv@divisor+1
  4572  0E12  084D               	movf	calculateLux@channel0,w
  4573  0E13  00A0               	movwf	___lldiv@divisor
  4574  0E14  0849               	movf	calculateLux@channel1,w
  4575  0E15  00B1               	movwf	??_calculateLux
  4576  0E16  084A               	movf	calculateLux@channel1+1,w
  4577  0E17  00B2               	movwf	??_calculateLux+1
  4578  0E18  084B               	movf	calculateLux@channel1+2,w
  4579  0E19  00B3               	movwf	??_calculateLux+2
  4580  0E1A  084C               	movf	calculateLux@channel1+3,w
  4581  0E1B  00B4               	movwf	??_calculateLux+3
  4582  0E1C  300A               	movlw	10
  4583  0E1D                     u1875:
  4584  0E1D  1003               	clrc
  4585  0E1E  0DB1               	rlf	??_calculateLux,f
  4586  0E1F  0DB2               	rlf	??_calculateLux+1,f
  4587  0E20  0DB3               	rlf	??_calculateLux+2,f
  4588  0E21  0DB4               	rlf	??_calculateLux+3,f
  4589  0E22                     u1870:
  4590  0E22  3EFF               	addlw	-1
  4591  0E23  1D03               	skipz
  4592  0E24  2E1D               	goto	u1875
  4593  0E25  0834               	movf	??_calculateLux+3,w
  4594  0E26  00A7               	movwf	___lldiv@dividend+3
  4595  0E27  0833               	movf	??_calculateLux+2,w
  4596  0E28  00A6               	movwf	___lldiv@dividend+2
  4597  0E29  0832               	movf	??_calculateLux+1,w
  4598  0E2A  00A5               	movwf	___lldiv@dividend+1
  4599  0E2B  0831               	movf	??_calculateLux,w
  4600  0E2C  00A4               	movwf	___lldiv@dividend
  4601  0E2D  120A  158A  22A5  120A  158A  	fcall	___lldiv
  4602  0E32  1283               	bcf	3,5	;RP0=0, select bank0
  4603  0E33  1303               	bcf	3,6	;RP1=0, select bank0
  4604  0E34  0823               	movf	?___lldiv+3,w
  4605  0E35  00BC               	movwf	calculateLux@ratio1+3
  4606  0E36  0822               	movf	?___lldiv+2,w
  4607  0E37  00BB               	movwf	calculateLux@ratio1+2
  4608  0E38  0821               	movf	?___lldiv+1,w
  4609  0E39  00BA               	movwf	calculateLux@ratio1+1
  4610  0E3A  0820               	movf	?___lldiv,w
  4611  0E3B  00B9               	movwf	calculateLux@ratio1
  4612  0E3C                     l2565:
  4613                           
  4614                           ;tsl2561.c: 26:   unsigned long ratio = (ratio1 + 1) >> 1;
  4615  0E3C  3001               	movlw	1
  4616  0E3D  00B1               	movwf	??_calculateLux
  4617  0E3E  3000               	movlw	0
  4618  0E3F  00B2               	movwf	??_calculateLux+1
  4619  0E40  3000               	movlw	0
  4620  0E41  00B3               	movwf	??_calculateLux+2
  4621  0E42  3000               	movlw	0
  4622  0E43  00B4               	movwf	??_calculateLux+3
  4623  0E44  0839               	movf	calculateLux@ratio1,w
  4624  0E45  07B1               	addwf	??_calculateLux,f
  4625  0E46  083A               	movf	calculateLux@ratio1+1,w
  4626  0E47  1803               	skipnc
  4627  0E48  0F3A               	incfsz	calculateLux@ratio1+1,w
  4628  0E49  2E4B               	goto	u1880
  4629  0E4A  2E4C               	goto	u1881
  4630  0E4B                     u1880:
  4631  0E4B  07B2               	addwf	??_calculateLux+1,f
  4632  0E4C                     u1881:
  4633  0E4C  083B               	movf	calculateLux@ratio1+2,w
  4634  0E4D  1803               	skipnc
  4635  0E4E  0F3B               	incfsz	calculateLux@ratio1+2,w
  4636  0E4F  2E51               	goto	u1882
  4637  0E50  2E52               	goto	u1883
  4638  0E51                     u1882:
  4639  0E51  07B3               	addwf	??_calculateLux+2,f
  4640  0E52                     u1883:
  4641  0E52  083C               	movf	calculateLux@ratio1+3,w
  4642  0E53  1803               	skipnc
  4643  0E54  0A3C               	incf	calculateLux@ratio1+3,w
  4644  0E55  07B4               	addwf	??_calculateLux+3,f
  4645  0E56  3001               	movlw	1
  4646  0E57                     u1895:
  4647  0E57  1003               	clrc
  4648  0E58  0CB4               	rrf	??_calculateLux+3,f
  4649  0E59  0CB3               	rrf	??_calculateLux+2,f
  4650  0E5A  0CB2               	rrf	??_calculateLux+1,f
  4651  0E5B  0CB1               	rrf	??_calculateLux,f
  4652  0E5C                     u1890:
  4653  0E5C  3EFF               	addlw	-1
  4654  0E5D  1D03               	skipz
  4655  0E5E  2E57               	goto	u1895
  4656  0E5F  0834               	movf	??_calculateLux+3,w
  4657  0E60  00D4               	movwf	calculateLux@ratio+3
  4658  0E61  0833               	movf	??_calculateLux+2,w
  4659  0E62  00D3               	movwf	calculateLux@ratio+2
  4660  0E63  0832               	movf	??_calculateLux+1,w
  4661  0E64  00D2               	movwf	calculateLux@ratio+1
  4662  0E65  0831               	movf	??_calculateLux,w
  4663  0E66  00D1               	movwf	calculateLux@ratio
  4664  0E67                     l2567:
  4665                           
  4666                           ;tsl2561.c: 28:   unsigned int b, m;;tsl2561.c: 30:   if ((ratio >= 0) && (ratio <= (0x0
      +                          040))) {
  4667  0E67  0854               	movf	calculateLux@ratio+3,w
  4668  0E68  1D03               	btfss	3,2
  4669  0E69  2E77               	goto	u1901
  4670  0E6A  0853               	movf	calculateLux@ratio+2,w
  4671  0E6B  1D03               	btfss	3,2
  4672  0E6C  2E77               	goto	u1901
  4673  0E6D  0852               	movf	calculateLux@ratio+1,w
  4674  0E6E  1D03               	btfss	3,2
  4675  0E6F  2E77               	goto	u1901
  4676  0E70  3041               	movlw	65
  4677  0E71  0251               	subwf	calculateLux@ratio,w
  4678  0E72  1D03               	skipz
  4679  0E73  2E74               	goto	u1903
  4680  0E74                     u1903:
  4681  0E74  1803               	btfsc	3,0
  4682  0E75  2E77               	goto	u1901
  4683  0E76  2E78               	goto	u1900
  4684  0E77                     u1901:
  4685  0E77  2E83               	goto	l2571
  4686  0E78                     u1900:
  4687  0E78                     l2569:
  4688                           
  4689                           ;tsl2561.c: 31:     b = (0x01f2);
  4690  0E78  30F2               	movlw	242
  4691  0E79  1283               	bcf	3,5	;RP0=0, select bank0
  4692  0E7A  1303               	bcf	3,6	;RP1=0, select bank0
  4693  0E7B  00C1               	movwf	calculateLux@b
  4694  0E7C  3001               	movlw	1
  4695  0E7D  00C2               	movwf	calculateLux@b+1
  4696                           
  4697                           ;tsl2561.c: 32:     m = (0x01be);
  4698  0E7E  30BE               	movlw	190
  4699  0E7F  00C3               	movwf	calculateLux@m
  4700  0E80  3001               	movlw	1
  4701  0E81  00C4               	movwf	calculateLux@m+1
  4702                           
  4703                           ;tsl2561.c: 33:   } else if (ratio <= (0x0080)) {
  4704  0E82  2F56               	goto	l2599
  4705  0E83                     l2571:
  4706  0E83  1283               	bcf	3,5	;RP0=0, select bank0
  4707  0E84  1303               	bcf	3,6	;RP1=0, select bank0
  4708  0E85  0854               	movf	calculateLux@ratio+3,w
  4709  0E86  1D03               	btfss	3,2
  4710  0E87  2E95               	goto	u1911
  4711  0E88  0853               	movf	calculateLux@ratio+2,w
  4712  0E89  1D03               	btfss	3,2
  4713  0E8A  2E95               	goto	u1911
  4714  0E8B  0852               	movf	calculateLux@ratio+1,w
  4715  0E8C  1D03               	btfss	3,2
  4716  0E8D  2E95               	goto	u1911
  4717  0E8E  3081               	movlw	129
  4718  0E8F  0251               	subwf	calculateLux@ratio,w
  4719  0E90  1D03               	skipz
  4720  0E91  2E92               	goto	u1913
  4721  0E92                     u1913:
  4722  0E92  1803               	btfsc	3,0
  4723  0E93  2E95               	goto	u1911
  4724  0E94  2E96               	goto	u1910
  4725  0E95                     u1911:
  4726  0E95  2EA1               	goto	l2575
  4727  0E96                     u1910:
  4728  0E96                     l2573:
  4729                           
  4730                           ;tsl2561.c: 34:     b = (0x0214);
  4731  0E96  3014               	movlw	20
  4732  0E97  1283               	bcf	3,5	;RP0=0, select bank0
  4733  0E98  1303               	bcf	3,6	;RP1=0, select bank0
  4734  0E99  00C1               	movwf	calculateLux@b
  4735  0E9A  3002               	movlw	2
  4736  0E9B  00C2               	movwf	calculateLux@b+1
  4737                           
  4738                           ;tsl2561.c: 35:     m = (0x02d1);
  4739  0E9C  30D1               	movlw	209
  4740  0E9D  00C3               	movwf	calculateLux@m
  4741  0E9E  3002               	movlw	2
  4742  0E9F  00C4               	movwf	calculateLux@m+1
  4743                           
  4744                           ;tsl2561.c: 36:   } else if (ratio <= (0x00c0)) {
  4745  0EA0  2F56               	goto	l2599
  4746  0EA1                     l2575:
  4747  0EA1  1283               	bcf	3,5	;RP0=0, select bank0
  4748  0EA2  1303               	bcf	3,6	;RP1=0, select bank0
  4749  0EA3  0854               	movf	calculateLux@ratio+3,w
  4750  0EA4  1D03               	btfss	3,2
  4751  0EA5  2EB3               	goto	u1921
  4752  0EA6  0853               	movf	calculateLux@ratio+2,w
  4753  0EA7  1D03               	btfss	3,2
  4754  0EA8  2EB3               	goto	u1921
  4755  0EA9  0852               	movf	calculateLux@ratio+1,w
  4756  0EAA  1D03               	btfss	3,2
  4757  0EAB  2EB3               	goto	u1921
  4758  0EAC  30C1               	movlw	193
  4759  0EAD  0251               	subwf	calculateLux@ratio,w
  4760  0EAE  1D03               	skipz
  4761  0EAF  2EB0               	goto	u1923
  4762  0EB0                     u1923:
  4763  0EB0  1803               	btfsc	3,0
  4764  0EB1  2EB3               	goto	u1921
  4765  0EB2  2EB4               	goto	u1920
  4766  0EB3                     u1921:
  4767  0EB3  2EBF               	goto	l2579
  4768  0EB4                     u1920:
  4769  0EB4                     l2577:
  4770                           
  4771                           ;tsl2561.c: 37:     b = (0x023f);
  4772  0EB4  303F               	movlw	63
  4773  0EB5  1283               	bcf	3,5	;RP0=0, select bank0
  4774  0EB6  1303               	bcf	3,6	;RP1=0, select bank0
  4775  0EB7  00C1               	movwf	calculateLux@b
  4776  0EB8  3002               	movlw	2
  4777  0EB9  00C2               	movwf	calculateLux@b+1
  4778                           
  4779                           ;tsl2561.c: 38:     m = (0x037b);
  4780  0EBA  307B               	movlw	123
  4781  0EBB  00C3               	movwf	calculateLux@m
  4782  0EBC  3003               	movlw	3
  4783  0EBD  00C4               	movwf	calculateLux@m+1
  4784                           
  4785                           ;tsl2561.c: 39:   } else if (ratio <= (0x0100)) {
  4786  0EBE  2F56               	goto	l2599
  4787  0EBF                     l2579:
  4788  0EBF  1283               	bcf	3,5	;RP0=0, select bank0
  4789  0EC0  1303               	bcf	3,6	;RP1=0, select bank0
  4790  0EC1  0854               	movf	calculateLux@ratio+3,w
  4791  0EC2  1D03               	btfss	3,2
  4792  0EC3  2ED2               	goto	u1931
  4793  0EC4  0853               	movf	calculateLux@ratio+2,w
  4794  0EC5  1D03               	btfss	3,2
  4795  0EC6  2ED2               	goto	u1931
  4796  0EC7  3001               	movlw	1
  4797  0EC8  0252               	subwf	calculateLux@ratio+1,w
  4798  0EC9  1D03               	skipz
  4799  0ECA  2ECF               	goto	u1933
  4800  0ECB  3001               	movlw	1
  4801  0ECC  0251               	subwf	calculateLux@ratio,w
  4802  0ECD  1D03               	skipz
  4803  0ECE  2ECF               	goto	u1933
  4804  0ECF                     u1933:
  4805  0ECF  1803               	btfsc	3,0
  4806  0ED0  2ED2               	goto	u1931
  4807  0ED1  2ED3               	goto	u1930
  4808  0ED2                     u1931:
  4809  0ED2  2EDE               	goto	l2583
  4810  0ED3                     u1930:
  4811  0ED3                     l2581:
  4812                           
  4813                           ;tsl2561.c: 40:     b = (0x0270);
  4814  0ED3  3070               	movlw	112
  4815  0ED4  1283               	bcf	3,5	;RP0=0, select bank0
  4816  0ED5  1303               	bcf	3,6	;RP1=0, select bank0
  4817  0ED6  00C1               	movwf	calculateLux@b
  4818  0ED7  3002               	movlw	2
  4819  0ED8  00C2               	movwf	calculateLux@b+1
  4820                           
  4821                           ;tsl2561.c: 41:     m = (0x03fe);
  4822  0ED9  30FE               	movlw	254
  4823  0EDA  00C3               	movwf	calculateLux@m
  4824  0EDB  3003               	movlw	3
  4825  0EDC  00C4               	movwf	calculateLux@m+1
  4826                           
  4827                           ;tsl2561.c: 42:   } else if (ratio <= (0x0138)) {
  4828  0EDD  2F56               	goto	l2599
  4829  0EDE                     l2583:
  4830  0EDE  1283               	bcf	3,5	;RP0=0, select bank0
  4831  0EDF  1303               	bcf	3,6	;RP1=0, select bank0
  4832  0EE0  0854               	movf	calculateLux@ratio+3,w
  4833  0EE1  1D03               	btfss	3,2
  4834  0EE2  2EF1               	goto	u1941
  4835  0EE3  0853               	movf	calculateLux@ratio+2,w
  4836  0EE4  1D03               	btfss	3,2
  4837  0EE5  2EF1               	goto	u1941
  4838  0EE6  3001               	movlw	1
  4839  0EE7  0252               	subwf	calculateLux@ratio+1,w
  4840  0EE8  1D03               	skipz
  4841  0EE9  2EEE               	goto	u1943
  4842  0EEA  3039               	movlw	57
  4843  0EEB  0251               	subwf	calculateLux@ratio,w
  4844  0EEC  1D03               	skipz
  4845  0EED  2EEE               	goto	u1943
  4846  0EEE                     u1943:
  4847  0EEE  1803               	btfsc	3,0
  4848  0EEF  2EF1               	goto	u1941
  4849  0EF0  2EF2               	goto	u1940
  4850  0EF1                     u1941:
  4851  0EF1  2EFD               	goto	l2587
  4852  0EF2                     u1940:
  4853  0EF2                     l2585:
  4854                           
  4855                           ;tsl2561.c: 43:     b = (0x016f);
  4856  0EF2  306F               	movlw	111
  4857  0EF3  1283               	bcf	3,5	;RP0=0, select bank0
  4858  0EF4  1303               	bcf	3,6	;RP1=0, select bank0
  4859  0EF5  00C1               	movwf	calculateLux@b
  4860  0EF6  3001               	movlw	1
  4861  0EF7  00C2               	movwf	calculateLux@b+1
  4862                           
  4863                           ;tsl2561.c: 44:     m = (0x01fc);
  4864  0EF8  30FC               	movlw	252
  4865  0EF9  00C3               	movwf	calculateLux@m
  4866  0EFA  3001               	movlw	1
  4867  0EFB  00C4               	movwf	calculateLux@m+1
  4868                           
  4869                           ;tsl2561.c: 45:   } else if (ratio <= (0x019a)) {
  4870  0EFC  2F56               	goto	l2599
  4871  0EFD                     l2587:
  4872  0EFD  1283               	bcf	3,5	;RP0=0, select bank0
  4873  0EFE  1303               	bcf	3,6	;RP1=0, select bank0
  4874  0EFF  0854               	movf	calculateLux@ratio+3,w
  4875  0F00  1D03               	btfss	3,2
  4876  0F01  2F10               	goto	u1951
  4877  0F02  0853               	movf	calculateLux@ratio+2,w
  4878  0F03  1D03               	btfss	3,2
  4879  0F04  2F10               	goto	u1951
  4880  0F05  3001               	movlw	1
  4881  0F06  0252               	subwf	calculateLux@ratio+1,w
  4882  0F07  1D03               	skipz
  4883  0F08  2F0D               	goto	u1953
  4884  0F09  309B               	movlw	155
  4885  0F0A  0251               	subwf	calculateLux@ratio,w
  4886  0F0B  1D03               	skipz
  4887  0F0C  2F0D               	goto	u1953
  4888  0F0D                     u1953:
  4889  0F0D  1803               	btfsc	3,0
  4890  0F0E  2F10               	goto	u1951
  4891  0F0F  2F11               	goto	u1950
  4892  0F10                     u1951:
  4893  0F10  2F1C               	goto	l2591
  4894  0F11                     u1950:
  4895  0F11                     l2589:
  4896                           
  4897                           ;tsl2561.c: 46:     b = (0x00d2);
  4898  0F11  30D2               	movlw	210
  4899  0F12  1283               	bcf	3,5	;RP0=0, select bank0
  4900  0F13  1303               	bcf	3,6	;RP1=0, select bank0
  4901  0F14  00C1               	movwf	calculateLux@b
  4902  0F15  3000               	movlw	0
  4903  0F16  00C2               	movwf	calculateLux@b+1
  4904                           
  4905                           ;tsl2561.c: 47:     m = (0x00fb);
  4906  0F17  30FB               	movlw	251
  4907  0F18  00C3               	movwf	calculateLux@m
  4908  0F19  3000               	movlw	0
  4909  0F1A  00C4               	movwf	calculateLux@m+1
  4910                           
  4911                           ;tsl2561.c: 48:   } else if (ratio <= (0x029a)) {
  4912  0F1B  2F56               	goto	l2599
  4913  0F1C                     l2591:
  4914  0F1C  1283               	bcf	3,5	;RP0=0, select bank0
  4915  0F1D  1303               	bcf	3,6	;RP1=0, select bank0
  4916  0F1E  0854               	movf	calculateLux@ratio+3,w
  4917  0F1F  1D03               	btfss	3,2
  4918  0F20  2F2F               	goto	u1961
  4919  0F21  0853               	movf	calculateLux@ratio+2,w
  4920  0F22  1D03               	btfss	3,2
  4921  0F23  2F2F               	goto	u1961
  4922  0F24  3002               	movlw	2
  4923  0F25  0252               	subwf	calculateLux@ratio+1,w
  4924  0F26  1D03               	skipz
  4925  0F27  2F2C               	goto	u1963
  4926  0F28  309B               	movlw	155
  4927  0F29  0251               	subwf	calculateLux@ratio,w
  4928  0F2A  1D03               	skipz
  4929  0F2B  2F2C               	goto	u1963
  4930  0F2C                     u1963:
  4931  0F2C  1803               	btfsc	3,0
  4932  0F2D  2F2F               	goto	u1961
  4933  0F2E  2F30               	goto	u1960
  4934  0F2F                     u1961:
  4935  0F2F  2F3B               	goto	l2595
  4936  0F30                     u1960:
  4937  0F30                     l2593:
  4938                           
  4939                           ;tsl2561.c: 49:     b = (0x0018);
  4940  0F30  3018               	movlw	24
  4941  0F31  1283               	bcf	3,5	;RP0=0, select bank0
  4942  0F32  1303               	bcf	3,6	;RP1=0, select bank0
  4943  0F33  00C1               	movwf	calculateLux@b
  4944  0F34  3000               	movlw	0
  4945  0F35  00C2               	movwf	calculateLux@b+1
  4946                           
  4947                           ;tsl2561.c: 50:     m = (0x0012);
  4948  0F36  3012               	movlw	18
  4949  0F37  00C3               	movwf	calculateLux@m
  4950  0F38  3000               	movlw	0
  4951  0F39  00C4               	movwf	calculateLux@m+1
  4952                           
  4953                           ;tsl2561.c: 51:   } else if (ratio > (0x029a)) {
  4954  0F3A  2F56               	goto	l2599
  4955  0F3B                     l2595:
  4956  0F3B  1283               	bcf	3,5	;RP0=0, select bank0
  4957  0F3C  1303               	bcf	3,6	;RP1=0, select bank0
  4958  0F3D  0854               	movf	calculateLux@ratio+3,w
  4959  0F3E  1D03               	btfss	3,2
  4960  0F3F  2F4F               	goto	u1970
  4961  0F40  0853               	movf	calculateLux@ratio+2,w
  4962  0F41  1D03               	btfss	3,2
  4963  0F42  2F4F               	goto	u1970
  4964  0F43  3002               	movlw	2
  4965  0F44  0252               	subwf	calculateLux@ratio+1,w
  4966  0F45  1D03               	skipz
  4967  0F46  2F4B               	goto	u1973
  4968  0F47  309B               	movlw	155
  4969  0F48  0251               	subwf	calculateLux@ratio,w
  4970  0F49  1D03               	skipz
  4971  0F4A  2F4B               	goto	u1973
  4972  0F4B                     u1973:
  4973  0F4B  1C03               	btfss	3,0
  4974  0F4C  2F4E               	goto	u1971
  4975  0F4D  2F4F               	goto	u1970
  4976  0F4E                     u1971:
  4977  0F4E  2F56               	goto	l283
  4978  0F4F                     u1970:
  4979  0F4F                     l2597:
  4980                           
  4981                           ;tsl2561.c: 52:     b = (0x0000);
  4982  0F4F  1283               	bcf	3,5	;RP0=0, select bank0
  4983  0F50  1303               	bcf	3,6	;RP1=0, select bank0
  4984  0F51  01C1               	clrf	calculateLux@b
  4985  0F52  01C2               	clrf	calculateLux@b+1
  4986                           
  4987                           ;tsl2561.c: 53:     m = (0x0000);
  4988  0F53  01C3               	clrf	calculateLux@m
  4989  0F54  01C4               	clrf	calculateLux@m+1
  4990  0F55  2F56               	goto	l2599
  4991  0F56                     l283:
  4992  0F56                     l2599:
  4993                           
  4994                           ;tsl2561.c: 56:   unsigned long temp;;tsl2561.c: 57:   channel0 = channel0 * b;
  4995  0F56  1283               	bcf	3,5	;RP0=0, select bank0
  4996  0F57  1303               	bcf	3,6	;RP1=0, select bank0
  4997  0F58  0841               	movf	calculateLux@b,w
  4998  0F59  00A0               	movwf	___lmul@multiplier
  4999  0F5A  0842               	movf	calculateLux@b+1,w
  5000  0F5B  00A1               	movwf	___lmul@multiplier+1
  5001  0F5C  01A2               	clrf	___lmul@multiplier+2
  5002  0F5D  01A3               	clrf	___lmul@multiplier+3
  5003  0F5E  0850               	movf	calculateLux@channel0+3,w
  5004  0F5F  00A7               	movwf	___lmul@multiplicand+3
  5005  0F60  084F               	movf	calculateLux@channel0+2,w
  5006  0F61  00A6               	movwf	___lmul@multiplicand+2
  5007  0F62  084E               	movf	calculateLux@channel0+1,w
  5008  0F63  00A5               	movwf	___lmul@multiplicand+1
  5009  0F64  084D               	movf	calculateLux@channel0,w
  5010  0F65  00A4               	movwf	___lmul@multiplicand
  5011  0F66  120A  158A  225D  120A  158A  	fcall	___lmul
  5012  0F6B  1283               	bcf	3,5	;RP0=0, select bank0
  5013  0F6C  1303               	bcf	3,6	;RP1=0, select bank0
  5014  0F6D  0823               	movf	?___lmul+3,w
  5015  0F6E  00D0               	movwf	calculateLux@channel0+3
  5016  0F6F  0822               	movf	?___lmul+2,w
  5017  0F70  00CF               	movwf	calculateLux@channel0+2
  5018  0F71  0821               	movf	?___lmul+1,w
  5019  0F72  00CE               	movwf	calculateLux@channel0+1
  5020  0F73  0820               	movf	?___lmul,w
  5021  0F74  00CD               	movwf	calculateLux@channel0
  5022  0F75                     l2601:
  5023                           
  5024                           ;tsl2561.c: 58:   channel1 = channel1 * m;
  5025  0F75  0843               	movf	calculateLux@m,w
  5026  0F76  00A0               	movwf	___lmul@multiplier
  5027  0F77  0844               	movf	calculateLux@m+1,w
  5028  0F78  00A1               	movwf	___lmul@multiplier+1
  5029  0F79  01A2               	clrf	___lmul@multiplier+2
  5030  0F7A  01A3               	clrf	___lmul@multiplier+3
  5031  0F7B  084C               	movf	calculateLux@channel1+3,w
  5032  0F7C  00A7               	movwf	___lmul@multiplicand+3
  5033  0F7D  084B               	movf	calculateLux@channel1+2,w
  5034  0F7E  00A6               	movwf	___lmul@multiplicand+2
  5035  0F7F  084A               	movf	calculateLux@channel1+1,w
  5036  0F80  00A5               	movwf	___lmul@multiplicand+1
  5037  0F81  0849               	movf	calculateLux@channel1,w
  5038  0F82  00A4               	movwf	___lmul@multiplicand
  5039  0F83  120A  158A  225D  120A  158A  	fcall	___lmul
  5040  0F88  1283               	bcf	3,5	;RP0=0, select bank0
  5041  0F89  1303               	bcf	3,6	;RP1=0, select bank0
  5042  0F8A  0823               	movf	?___lmul+3,w
  5043  0F8B  00CC               	movwf	calculateLux@channel1+3
  5044  0F8C  0822               	movf	?___lmul+2,w
  5045  0F8D  00CB               	movwf	calculateLux@channel1+2
  5046  0F8E  0821               	movf	?___lmul+1,w
  5047  0F8F  00CA               	movwf	calculateLux@channel1+1
  5048  0F90  0820               	movf	?___lmul,w
  5049  0F91  00C9               	movwf	calculateLux@channel1
  5050  0F92                     l2603:
  5051                           
  5052                           ;tsl2561.c: 60:   temp = 0;
  5053  0F92  3000               	movlw	0
  5054  0F93  00C0               	movwf	calculateLux@temp+3
  5055  0F94  3000               	movlw	0
  5056  0F95  00BF               	movwf	calculateLux@temp+2
  5057  0F96  3000               	movlw	0
  5058  0F97  00BE               	movwf	calculateLux@temp+1
  5059  0F98  3000               	movlw	0
  5060  0F99  00BD               	movwf	calculateLux@temp
  5061  0F9A                     l2605:
  5062                           
  5063                           ;tsl2561.c: 62:   if (channel0 > channel1)
  5064  0F9A  0850               	movf	calculateLux@channel0+3,w
  5065  0F9B  024C               	subwf	calculateLux@channel1+3,w
  5066  0F9C  1D03               	skipz
  5067  0F9D  2FA8               	goto	u1985
  5068  0F9E  084F               	movf	calculateLux@channel0+2,w
  5069  0F9F  024B               	subwf	calculateLux@channel1+2,w
  5070  0FA0  1D03               	skipz
  5071  0FA1  2FA8               	goto	u1985
  5072  0FA2  084E               	movf	calculateLux@channel0+1,w
  5073  0FA3  024A               	subwf	calculateLux@channel1+1,w
  5074  0FA4  1D03               	skipz
  5075  0FA5  2FA8               	goto	u1985
  5076  0FA6  084D               	movf	calculateLux@channel0,w
  5077  0FA7  0249               	subwf	calculateLux@channel1,w
  5078  0FA8                     u1985:
  5079  0FA8  1803               	skipnc
  5080  0FA9  2FAB               	goto	u1981
  5081  0FAA  2FAC               	goto	u1980
  5082  0FAB                     u1981:
  5083  0FAB  2FD0               	goto	l289
  5084  0FAC                     u1980:
  5085  0FAC                     l2607:
  5086                           
  5087                           ;tsl2561.c: 63:     temp = channel0 - channel1;
  5088  0FAC  084D               	movf	calculateLux@channel0,w
  5089  0FAD  00B1               	movwf	??_calculateLux
  5090  0FAE  084E               	movf	calculateLux@channel0+1,w
  5091  0FAF  00B2               	movwf	??_calculateLux+1
  5092  0FB0  084F               	movf	calculateLux@channel0+2,w
  5093  0FB1  00B3               	movwf	??_calculateLux+2
  5094  0FB2  0850               	movf	calculateLux@channel0+3,w
  5095  0FB3  00B4               	movwf	??_calculateLux+3
  5096  0FB4  0849               	movf	calculateLux@channel1,w
  5097  0FB5  02B1               	subwf	??_calculateLux,f
  5098  0FB6  084A               	movf	calculateLux@channel1+1,w
  5099  0FB7  1C03               	skipc
  5100  0FB8  0F4A               	incfsz	calculateLux@channel1+1,w
  5101  0FB9  2FBB               	goto	u1991
  5102  0FBA  2FBC               	goto	u1992
  5103  0FBB                     u1991:
  5104  0FBB  02B2               	subwf	??_calculateLux+1,f
  5105  0FBC                     u1992:
  5106  0FBC  084B               	movf	calculateLux@channel1+2,w
  5107  0FBD  1C03               	skipc
  5108  0FBE  0F4B               	incfsz	calculateLux@channel1+2,w
  5109  0FBF  2FC1               	goto	u1993
  5110  0FC0  2FC2               	goto	u1994
  5111  0FC1                     u1993:
  5112  0FC1  02B3               	subwf	??_calculateLux+2,f
  5113  0FC2                     u1994:
  5114  0FC2  084C               	movf	calculateLux@channel1+3,w
  5115  0FC3  1C03               	skipc
  5116  0FC4  0F4C               	incfsz	calculateLux@channel1+3,w
  5117  0FC5  2FC7               	goto	u1995
  5118  0FC6  2FC8               	goto	u1996
  5119  0FC7                     u1995:
  5120  0FC7  02B4               	subwf	??_calculateLux+3,f
  5121  0FC8                     u1996:
  5122  0FC8  0834               	movf	??_calculateLux+3,w
  5123  0FC9  00C0               	movwf	calculateLux@temp+3
  5124  0FCA  0833               	movf	??_calculateLux+2,w
  5125  0FCB  00BF               	movwf	calculateLux@temp+2
  5126  0FCC  0832               	movf	??_calculateLux+1,w
  5127  0FCD  00BE               	movwf	calculateLux@temp+1
  5128  0FCE  0831               	movf	??_calculateLux,w
  5129  0FCF  00BD               	movwf	calculateLux@temp
  5130  0FD0                     l289:
  5131                           
  5132                           ;tsl2561.c: 66:   temp += (1 << ((14) - 1));
  5133  0FD0  3000               	movlw	0
  5134  0FD1  07BD               	addwf	calculateLux@temp,f
  5135  0FD2  3020               	movlw	32
  5136  0FD3  1803               	skipnc
  5137  0FD4  3021               	movlw	33
  5138  0FD5  07BE               	addwf	calculateLux@temp+1,f
  5139  0FD6  3000               	movlw	0
  5140  0FD7  1803               	skipnc
  5141  0FD8  3001               	movlw	1
  5142  0FD9  07BF               	addwf	calculateLux@temp+2,f
  5143  0FDA  3000               	movlw	0
  5144  0FDB  1803               	skipnc
  5145  0FDC  3001               	movlw	1
  5146  0FDD  07C0               	addwf	calculateLux@temp+3,f
  5147  0FDE                     l2609:
  5148                           
  5149                           ;tsl2561.c: 69:   uint32_t lux = temp >> (14);
  5150  0FDE  083D               	movf	calculateLux@temp,w
  5151  0FDF  00B1               	movwf	??_calculateLux
  5152  0FE0  083E               	movf	calculateLux@temp+1,w
  5153  0FE1  00B2               	movwf	??_calculateLux+1
  5154  0FE2  083F               	movf	calculateLux@temp+2,w
  5155  0FE3  00B3               	movwf	??_calculateLux+2
  5156  0FE4  0840               	movf	calculateLux@temp+3,w
  5157  0FE5  00B4               	movwf	??_calculateLux+3
  5158  0FE6  300E               	movlw	14
  5159  0FE7                     u2005:
  5160  0FE7  1003               	clrc
  5161  0FE8  0CB4               	rrf	??_calculateLux+3,f
  5162  0FE9  0CB3               	rrf	??_calculateLux+2,f
  5163  0FEA  0CB2               	rrf	??_calculateLux+1,f
  5164  0FEB  0CB1               	rrf	??_calculateLux,f
  5165  0FEC                     u2000:
  5166  0FEC  3EFF               	addlw	-1
  5167  0FED  1D03               	skipz
  5168  0FEE  2FE7               	goto	u2005
  5169  0FEF  0834               	movf	??_calculateLux+3,w
  5170  0FF0  00B8               	movwf	calculateLux@lux+3
  5171  0FF1  0833               	movf	??_calculateLux+2,w
  5172  0FF2  00B7               	movwf	calculateLux@lux+2
  5173  0FF3  0832               	movf	??_calculateLux+1,w
  5174  0FF4  00B6               	movwf	calculateLux@lux+1
  5175  0FF5  0831               	movf	??_calculateLux,w
  5176  0FF6  00B5               	movwf	calculateLux@lux
  5177  0FF7                     l2611:
  5178                           
  5179                           ;tsl2561.c: 72:   return lux;
  5180  0FF7  0838               	movf	calculateLux@lux+3,w
  5181  0FF8  00B0               	movwf	?_calculateLux+3
  5182  0FF9  0837               	movf	calculateLux@lux+2,w
  5183  0FFA  00AF               	movwf	?_calculateLux+2
  5184  0FFB  0836               	movf	calculateLux@lux+1,w
  5185  0FFC  00AE               	movwf	?_calculateLux+1
  5186  0FFD  0835               	movf	calculateLux@lux,w
  5187  0FFE  00AD               	movwf	?_calculateLux
  5188  0FFF                     l272:
  5189  0FFF  0008               	return
  5190  1000                     __end_of_calculateLux:
  5191                           
  5192                           	psect	text9
  5193  0A5D                     __ptext9:	
  5194 ;; *************** function ___lmul *****************
  5195 ;; Defined at:
  5196 ;;		line 15 in file "C:\Program Files\Microchip\xc8\v2.35\pic\sources\c90\common\Umul32.c"
  5197 ;; Parameters:    Size  Location     Type
  5198 ;;  multiplier      4    0[BANK0 ] unsigned long 
  5199 ;;  multiplicand    4    4[BANK0 ] unsigned long 
  5200 ;; Auto vars:     Size  Location     Type
  5201 ;;  product         4    4[COMMON] unsigned long 
  5202 ;; Return value:  Size  Location     Type
  5203 ;;                  4    0[BANK0 ] unsigned long 
  5204 ;; Registers used:
  5205 ;;		wreg, status,2, status,0
  5206 ;; Tracked objects:
  5207 ;;		On entry : 0/0
  5208 ;;		On exit  : 0/0
  5209 ;;		Unchanged: 0/0
  5210 ;; Data sizes:     COMMON   BANK0   BANK1   BANK3   BANK2
  5211 ;;      Params:         0       8       0       0       0
  5212 ;;      Locals:         4       0       0       0       0
  5213 ;;      Temps:          1       0       0       0       0
  5214 ;;      Totals:         5       8       0       0       0
  5215 ;;Total ram usage:       13 bytes
  5216 ;; Hardware stack levels used: 1
  5217 ;; Hardware stack levels required when called: 2
  5218 ;; This function calls:
  5219 ;;		Nothing
  5220 ;; This function is called by:
  5221 ;;		_calculateTemp
  5222 ;;		_calculateLux
  5223 ;; This function uses a non-reentrant model
  5224 ;;
  5225                           
  5226  0A5D                     ___lmul:	
  5227                           ;psect for function ___lmul
  5228                           
  5229  0A5D                     l2475:	
  5230                           ;incstack = 0
  5231                           ; Regs used in ___lmul: [wreg+status,2+status,0]
  5232                           
  5233  0A5D  3000               	movlw	0
  5234  0A5E  00F7               	movwf	___lmul@product+3
  5235  0A5F  3000               	movlw	0
  5236  0A60  00F6               	movwf	___lmul@product+2
  5237  0A61  3000               	movlw	0
  5238  0A62  00F5               	movwf	___lmul@product+1
  5239  0A63  3000               	movlw	0
  5240  0A64  00F4               	movwf	___lmul@product
  5241  0A65                     l2477:
  5242  0A65  1283               	bcf	3,5	;RP0=0, select bank0
  5243  0A66  1303               	bcf	3,6	;RP1=0, select bank0
  5244  0A67  1C20               	btfss	___lmul@multiplier,0
  5245  0A68  2A6A               	goto	u1751
  5246  0A69  2A6B               	goto	u1750
  5247  0A6A                     u1751:
  5248  0A6A  2A82               	goto	l2481
  5249  0A6B                     u1750:
  5250  0A6B                     l2479:
  5251  0A6B  0824               	movf	___lmul@multiplicand,w
  5252  0A6C  07F4               	addwf	___lmul@product,f
  5253  0A6D  0825               	movf	___lmul@multiplicand+1,w
  5254  0A6E  1103               	clrz
  5255  0A6F  1803               	skipnc
  5256  0A70  3E01               	addlw	1
  5257  0A71  1903               	skipnz
  5258  0A72  2A74               	goto	u1761
  5259  0A73  07F5               	addwf	___lmul@product+1,f
  5260  0A74                     u1761:
  5261  0A74  0826               	movf	___lmul@multiplicand+2,w
  5262  0A75  1103               	clrz
  5263  0A76  1803               	skipnc
  5264  0A77  3E01               	addlw	1
  5265  0A78  1903               	skipnz
  5266  0A79  2A7B               	goto	u1762
  5267  0A7A  07F6               	addwf	___lmul@product+2,f
  5268  0A7B                     u1762:
  5269  0A7B  0827               	movf	___lmul@multiplicand+3,w
  5270  0A7C  1103               	clrz
  5271  0A7D  1803               	skipnc
  5272  0A7E  3E01               	addlw	1
  5273  0A7F  1903               	skipnz
  5274  0A80  2A82               	goto	u1763
  5275  0A81  07F7               	addwf	___lmul@product+3,f
  5276  0A82                     u1763:
  5277  0A82                     l2481:
  5278  0A82  3001               	movlw	1
  5279  0A83  00F3               	movwf	??___lmul
  5280  0A84                     u1775:
  5281  0A84  1003               	clrc
  5282  0A85  0DA4               	rlf	___lmul@multiplicand,f
  5283  0A86  0DA5               	rlf	___lmul@multiplicand+1,f
  5284  0A87  0DA6               	rlf	___lmul@multiplicand+2,f
  5285  0A88  0DA7               	rlf	___lmul@multiplicand+3,f
  5286  0A89  0BF3               	decfsz	??___lmul,f
  5287  0A8A  2A84               	goto	u1775
  5288  0A8B                     l2483:
  5289  0A8B  3001               	movlw	1
  5290  0A8C                     u1785:
  5291  0A8C  1003               	clrc
  5292  0A8D  0CA3               	rrf	___lmul@multiplier+3,f
  5293  0A8E  0CA2               	rrf	___lmul@multiplier+2,f
  5294  0A8F  0CA1               	rrf	___lmul@multiplier+1,f
  5295  0A90  0CA0               	rrf	___lmul@multiplier,f
  5296  0A91  3EFF               	addlw	-1
  5297  0A92  1D03               	skipz
  5298  0A93  2A8C               	goto	u1785
  5299  0A94  0823               	movf	___lmul@multiplier+3,w
  5300  0A95  0422               	iorwf	___lmul@multiplier+2,w
  5301  0A96  0421               	iorwf	___lmul@multiplier+1,w
  5302  0A97  0420               	iorwf	___lmul@multiplier,w
  5303  0A98  1D03               	skipz
  5304  0A99  2A9B               	goto	u1791
  5305  0A9A  2A9C               	goto	u1790
  5306  0A9B                     u1791:
  5307  0A9B  2A65               	goto	l2477
  5308  0A9C                     u1790:
  5309  0A9C                     l2485:
  5310  0A9C  0877               	movf	___lmul@product+3,w
  5311  0A9D  00A3               	movwf	?___lmul+3
  5312  0A9E  0876               	movf	___lmul@product+2,w
  5313  0A9F  00A2               	movwf	?___lmul+2
  5314  0AA0  0875               	movf	___lmul@product+1,w
  5315  0AA1  00A1               	movwf	?___lmul+1
  5316  0AA2  0874               	movf	___lmul@product,w
  5317  0AA3  00A0               	movwf	?___lmul
  5318  0AA4                     l389:
  5319  0AA4  0008               	return
  5320  0AA5                     __end_of___lmul:
  5321                           
  5322                           	psect	text10
  5323  0AA5                     __ptext10:	
  5324 ;; *************** function ___lldiv *****************
  5325 ;; Defined at:
  5326 ;;		line 5 in file "C:\Program Files\Microchip\xc8\v2.35\pic\sources\c90\common\__lldiv.c"
  5327 ;; Parameters:    Size  Location     Type
  5328 ;;  divisor         4    0[BANK0 ] unsigned long 
  5329 ;;  dividend        4    4[BANK0 ] unsigned long 
  5330 ;; Auto vars:     Size  Location     Type
  5331 ;;  quotient        4    8[BANK0 ] unsigned long 
  5332 ;;  counter         1   12[BANK0 ] unsigned char 
  5333 ;; Return value:  Size  Location     Type
  5334 ;;                  4    0[BANK0 ] unsigned long 
  5335 ;; Registers used:
  5336 ;;		wreg, status,2, status,0
  5337 ;; Tracked objects:
  5338 ;;		On entry : 0/0
  5339 ;;		On exit  : 0/0
  5340 ;;		Unchanged: 0/0
  5341 ;; Data sizes:     COMMON   BANK0   BANK1   BANK3   BANK2
  5342 ;;      Params:         0       8       0       0       0
  5343 ;;      Locals:         0       5       0       0       0
  5344 ;;      Temps:          1       0       0       0       0
  5345 ;;      Totals:         1      13       0       0       0
  5346 ;;Total ram usage:       14 bytes
  5347 ;; Hardware stack levels used: 1
  5348 ;; Hardware stack levels required when called: 2
  5349 ;; This function calls:
  5350 ;;		Nothing
  5351 ;; This function is called by:
  5352 ;;		_I2C_Master_Init
  5353 ;;		_calculateLux
  5354 ;; This function uses a non-reentrant model
  5355 ;;
  5356                           
  5357  0AA5                     ___lldiv:	
  5358                           ;psect for function ___lldiv
  5359                           
  5360  0AA5                     l2435:	
  5361                           ;incstack = 0
  5362                           ; Regs used in ___lldiv: [wreg+status,2+status,0]
  5363                           
  5364  0AA5  3000               	movlw	0
  5365  0AA6  1283               	bcf	3,5	;RP0=0, select bank0
  5366  0AA7  1303               	bcf	3,6	;RP1=0, select bank0
  5367  0AA8  00AB               	movwf	___lldiv@quotient+3
  5368  0AA9  3000               	movlw	0
  5369  0AAA  00AA               	movwf	___lldiv@quotient+2
  5370  0AAB  3000               	movlw	0
  5371  0AAC  00A9               	movwf	___lldiv@quotient+1
  5372  0AAD  3000               	movlw	0
  5373  0AAE  00A8               	movwf	___lldiv@quotient
  5374  0AAF  0823               	movf	___lldiv@divisor+3,w
  5375  0AB0  0422               	iorwf	___lldiv@divisor+2,w
  5376  0AB1  0421               	iorwf	___lldiv@divisor+1,w
  5377  0AB2  0420               	iorwf	___lldiv@divisor,w
  5378  0AB3  1903               	skipnz
  5379  0AB4  2AB6               	goto	u1651
  5380  0AB5  2AB7               	goto	u1650
  5381  0AB6                     u1651:
  5382  0AB6  2B04               	goto	l2455
  5383  0AB7                     u1650:
  5384  0AB7                     l2437:
  5385  0AB7  01AC               	clrf	___lldiv@counter
  5386  0AB8  0AAC               	incf	___lldiv@counter,f
  5387  0AB9  2AC7               	goto	l2441
  5388  0ABA                     l2439:
  5389  0ABA  3001               	movlw	1
  5390  0ABB  00F3               	movwf	??___lldiv
  5391  0ABC                     u1665:
  5392  0ABC  1003               	clrc
  5393  0ABD  0DA0               	rlf	___lldiv@divisor,f
  5394  0ABE  0DA1               	rlf	___lldiv@divisor+1,f
  5395  0ABF  0DA2               	rlf	___lldiv@divisor+2,f
  5396  0AC0  0DA3               	rlf	___lldiv@divisor+3,f
  5397  0AC1  0BF3               	decfsz	??___lldiv,f
  5398  0AC2  2ABC               	goto	u1665
  5399  0AC3  3001               	movlw	1
  5400  0AC4  00F3               	movwf	??___lldiv
  5401  0AC5  0873               	movf	??___lldiv,w
  5402  0AC6  07AC               	addwf	___lldiv@counter,f
  5403  0AC7                     l2441:
  5404  0AC7  1FA3               	btfss	___lldiv@divisor+3,7
  5405  0AC8  2ACA               	goto	u1671
  5406  0AC9  2ACB               	goto	u1670
  5407  0ACA                     u1671:
  5408  0ACA  2ABA               	goto	l2439
  5409  0ACB                     u1670:
  5410  0ACB                     l2443:
  5411  0ACB  3001               	movlw	1
  5412  0ACC  00F3               	movwf	??___lldiv
  5413  0ACD                     u1685:
  5414  0ACD  1003               	clrc
  5415  0ACE  0DA8               	rlf	___lldiv@quotient,f
  5416  0ACF  0DA9               	rlf	___lldiv@quotient+1,f
  5417  0AD0  0DAA               	rlf	___lldiv@quotient+2,f
  5418  0AD1  0DAB               	rlf	___lldiv@quotient+3,f
  5419  0AD2  0BF3               	decfsz	??___lldiv,f
  5420  0AD3  2ACD               	goto	u1685
  5421  0AD4                     l2445:
  5422  0AD4  0823               	movf	___lldiv@divisor+3,w
  5423  0AD5  0227               	subwf	___lldiv@dividend+3,w
  5424  0AD6  1D03               	skipz
  5425  0AD7  2AE2               	goto	u1695
  5426  0AD8  0822               	movf	___lldiv@divisor+2,w
  5427  0AD9  0226               	subwf	___lldiv@dividend+2,w
  5428  0ADA  1D03               	skipz
  5429  0ADB  2AE2               	goto	u1695
  5430  0ADC  0821               	movf	___lldiv@divisor+1,w
  5431  0ADD  0225               	subwf	___lldiv@dividend+1,w
  5432  0ADE  1D03               	skipz
  5433  0ADF  2AE2               	goto	u1695
  5434  0AE0  0820               	movf	___lldiv@divisor,w
  5435  0AE1  0224               	subwf	___lldiv@dividend,w
  5436  0AE2                     u1695:
  5437  0AE2  1C03               	skipc
  5438  0AE3  2AE5               	goto	u1691
  5439  0AE4  2AE6               	goto	u1690
  5440  0AE5                     u1691:
  5441  0AE5  2AF5               	goto	l2451
  5442  0AE6                     u1690:
  5443  0AE6                     l2447:
  5444  0AE6  0820               	movf	___lldiv@divisor,w
  5445  0AE7  02A4               	subwf	___lldiv@dividend,f
  5446  0AE8  0821               	movf	___lldiv@divisor+1,w
  5447  0AE9  1C03               	skipc
  5448  0AEA  0F21               	incfsz	___lldiv@divisor+1,w
  5449  0AEB  02A5               	subwf	___lldiv@dividend+1,f
  5450  0AEC  0822               	movf	___lldiv@divisor+2,w
  5451  0AED  1C03               	skipc
  5452  0AEE  0F22               	incfsz	___lldiv@divisor+2,w
  5453  0AEF  02A6               	subwf	___lldiv@dividend+2,f
  5454  0AF0  0823               	movf	___lldiv@divisor+3,w
  5455  0AF1  1C03               	skipc
  5456  0AF2  0F23               	incfsz	___lldiv@divisor+3,w
  5457  0AF3  02A7               	subwf	___lldiv@dividend+3,f
  5458  0AF4                     l2449:
  5459  0AF4  1428               	bsf	___lldiv@quotient,0
  5460  0AF5                     l2451:
  5461  0AF5  3001               	movlw	1
  5462  0AF6                     u1705:
  5463  0AF6  1003               	clrc
  5464  0AF7  0CA3               	rrf	___lldiv@divisor+3,f
  5465  0AF8  0CA2               	rrf	___lldiv@divisor+2,f
  5466  0AF9  0CA1               	rrf	___lldiv@divisor+1,f
  5467  0AFA  0CA0               	rrf	___lldiv@divisor,f
  5468  0AFB  3EFF               	addlw	-1
  5469  0AFC  1D03               	skipz
  5470  0AFD  2AF6               	goto	u1705
  5471  0AFE                     l2453:
  5472  0AFE  3001               	movlw	1
  5473  0AFF  02AC               	subwf	___lldiv@counter,f
  5474  0B00  1D03               	btfss	3,2
  5475  0B01  2B03               	goto	u1711
  5476  0B02  2B04               	goto	u1710
  5477  0B03                     u1711:
  5478  0B03  2ACB               	goto	l2443
  5479  0B04                     u1710:
  5480  0B04                     l2455:
  5481  0B04  082B               	movf	___lldiv@quotient+3,w
  5482  0B05  00A3               	movwf	?___lldiv+3
  5483  0B06  082A               	movf	___lldiv@quotient+2,w
  5484  0B07  00A2               	movwf	?___lldiv+2
  5485  0B08  0829               	movf	___lldiv@quotient+1,w
  5486  0B09  00A1               	movwf	?___lldiv+1
  5487  0B0A  0828               	movf	___lldiv@quotient,w
  5488  0B0B  00A0               	movwf	?___lldiv
  5489  0B0C                     l411:
  5490  0B0C  0008               	return
  5491  0B0D                     __end_of___lldiv:
  5492                           
  5493                           	psect	text11
  5494  0B0D                     __ptext11:	
  5495 ;; *************** function ___awdiv *****************
  5496 ;; Defined at:
  5497 ;;		line 5 in file "C:\Program Files\Microchip\xc8\v2.35\pic\sources\c90\common\awdiv.c"
  5498 ;; Parameters:    Size  Location     Type
  5499 ;;  divisor         2   56[BANK0 ] int 
  5500 ;;  dividend        2   58[BANK0 ] int 
  5501 ;; Auto vars:     Size  Location     Type
  5502 ;;  quotient        2   63[BANK0 ] int 
  5503 ;;  sign            1   62[BANK0 ] unsigned char 
  5504 ;;  counter         1   61[BANK0 ] unsigned char 
  5505 ;; Return value:  Size  Location     Type
  5506 ;;                  2   56[BANK0 ] int 
  5507 ;; Registers used:
  5508 ;;		wreg, status,2, status,0
  5509 ;; Tracked objects:
  5510 ;;		On entry : 0/0
  5511 ;;		On exit  : 0/0
  5512 ;;		Unchanged: 0/0
  5513 ;; Data sizes:     COMMON   BANK0   BANK1   BANK3   BANK2
  5514 ;;      Params:         0       4       0       0       0
  5515 ;;      Locals:         0       4       0       0       0
  5516 ;;      Temps:          0       1       0       0       0
  5517 ;;      Totals:         0       9       0       0       0
  5518 ;;Total ram usage:        9 bytes
  5519 ;; Hardware stack levels used: 1
  5520 ;; Hardware stack levels required when called: 2
  5521 ;; This function calls:
  5522 ;;		Nothing
  5523 ;; This function is called by:
  5524 ;;		_main
  5525 ;; This function uses a non-reentrant model
  5526 ;;
  5527                           
  5528  0B0D                     ___awdiv:	
  5529                           ;psect for function ___awdiv
  5530                           
  5531  0B0D                     l1903:	
  5532                           ;incstack = 0
  5533                           ; Regs used in ___awdiv: [wreg+status,2+status,0]
  5534                           
  5535  0B0D  1283               	bcf	3,5	;RP0=0, select bank0
  5536  0B0E  1303               	bcf	3,6	;RP1=0, select bank0
  5537  0B0F  01DE               	clrf	___awdiv@sign
  5538  0B10                     l1905:
  5539  0B10  1FD9               	btfss	___awdiv@divisor+1,7
  5540  0B11  2B13               	goto	u1311
  5541  0B12  2B14               	goto	u1310
  5542  0B13                     u1311:
  5543  0B13  2B1B               	goto	l1911
  5544  0B14                     u1310:
  5545  0B14                     l1907:
  5546  0B14  09D8               	comf	___awdiv@divisor,f
  5547  0B15  09D9               	comf	___awdiv@divisor+1,f
  5548  0B16  0AD8               	incf	___awdiv@divisor,f
  5549  0B17  1903               	skipnz
  5550  0B18  0AD9               	incf	___awdiv@divisor+1,f
  5551  0B19                     l1909:
  5552  0B19  01DE               	clrf	___awdiv@sign
  5553  0B1A  0ADE               	incf	___awdiv@sign,f
  5554  0B1B                     l1911:
  5555  0B1B  1FDB               	btfss	___awdiv@dividend+1,7
  5556  0B1C  2B1E               	goto	u1321
  5557  0B1D  2B1F               	goto	u1320
  5558  0B1E                     u1321:
  5559  0B1E  2B28               	goto	l1917
  5560  0B1F                     u1320:
  5561  0B1F                     l1913:
  5562  0B1F  09DA               	comf	___awdiv@dividend,f
  5563  0B20  09DB               	comf	___awdiv@dividend+1,f
  5564  0B21  0ADA               	incf	___awdiv@dividend,f
  5565  0B22  1903               	skipnz
  5566  0B23  0ADB               	incf	___awdiv@dividend+1,f
  5567  0B24                     l1915:
  5568  0B24  3001               	movlw	1
  5569  0B25  00DC               	movwf	??___awdiv
  5570  0B26  085C               	movf	??___awdiv,w
  5571  0B27  06DE               	xorwf	___awdiv@sign,f
  5572  0B28                     l1917:
  5573  0B28  01DF               	clrf	___awdiv@quotient
  5574  0B29  01E0               	clrf	___awdiv@quotient+1
  5575  0B2A                     l1919:
  5576  0B2A  0858               	movf	___awdiv@divisor,w
  5577  0B2B  0459               	iorwf	___awdiv@divisor+1,w
  5578  0B2C  1903               	btfsc	3,2
  5579  0B2D  2B2F               	goto	u1331
  5580  0B2E  2B30               	goto	u1330
  5581  0B2F                     u1331:
  5582  0B2F  2B67               	goto	l1939
  5583  0B30                     u1330:
  5584  0B30                     l1921:
  5585  0B30  01DD               	clrf	___awdiv@counter
  5586  0B31  0ADD               	incf	___awdiv@counter,f
  5587  0B32  2B3E               	goto	l1927
  5588  0B33                     l1923:
  5589  0B33  3001               	movlw	1
  5590  0B34                     u1345:
  5591  0B34  1003               	clrc
  5592  0B35  0DD8               	rlf	___awdiv@divisor,f
  5593  0B36  0DD9               	rlf	___awdiv@divisor+1,f
  5594  0B37  3EFF               	addlw	-1
  5595  0B38  1D03               	skipz
  5596  0B39  2B34               	goto	u1345
  5597  0B3A                     l1925:
  5598  0B3A  3001               	movlw	1
  5599  0B3B  00DC               	movwf	??___awdiv
  5600  0B3C  085C               	movf	??___awdiv,w
  5601  0B3D  07DD               	addwf	___awdiv@counter,f
  5602  0B3E                     l1927:
  5603  0B3E  1FD9               	btfss	___awdiv@divisor+1,7
  5604  0B3F  2B41               	goto	u1351
  5605  0B40  2B42               	goto	u1350
  5606  0B41                     u1351:
  5607  0B41  2B33               	goto	l1923
  5608  0B42                     u1350:
  5609  0B42                     l1929:
  5610  0B42  3001               	movlw	1
  5611  0B43                     u1365:
  5612  0B43  1003               	clrc
  5613  0B44  0DDF               	rlf	___awdiv@quotient,f
  5614  0B45  0DE0               	rlf	___awdiv@quotient+1,f
  5615  0B46  3EFF               	addlw	-1
  5616  0B47  1D03               	skipz
  5617  0B48  2B43               	goto	u1365
  5618  0B49  0859               	movf	___awdiv@divisor+1,w
  5619  0B4A  025B               	subwf	___awdiv@dividend+1,w
  5620  0B4B  1D03               	skipz
  5621  0B4C  2B4F               	goto	u1375
  5622  0B4D  0858               	movf	___awdiv@divisor,w
  5623  0B4E  025A               	subwf	___awdiv@dividend,w
  5624  0B4F                     u1375:
  5625  0B4F  1C03               	skipc
  5626  0B50  2B52               	goto	u1371
  5627  0B51  2B53               	goto	u1370
  5628  0B52                     u1371:
  5629  0B52  2B5A               	goto	l1935
  5630  0B53                     u1370:
  5631  0B53                     l1931:
  5632  0B53  0858               	movf	___awdiv@divisor,w
  5633  0B54  02DA               	subwf	___awdiv@dividend,f
  5634  0B55  0859               	movf	___awdiv@divisor+1,w
  5635  0B56  1C03               	skipc
  5636  0B57  03DB               	decf	___awdiv@dividend+1,f
  5637  0B58  02DB               	subwf	___awdiv@dividend+1,f
  5638  0B59                     l1933:
  5639  0B59  145F               	bsf	___awdiv@quotient,0
  5640  0B5A                     l1935:
  5641  0B5A  3001               	movlw	1
  5642  0B5B                     u1385:
  5643  0B5B  1003               	clrc
  5644  0B5C  0CD9               	rrf	___awdiv@divisor+1,f
  5645  0B5D  0CD8               	rrf	___awdiv@divisor,f
  5646  0B5E  3EFF               	addlw	-1
  5647  0B5F  1D03               	skipz
  5648  0B60  2B5B               	goto	u1385
  5649  0B61                     l1937:
  5650  0B61  3001               	movlw	1
  5651  0B62  02DD               	subwf	___awdiv@counter,f
  5652  0B63  1D03               	btfss	3,2
  5653  0B64  2B66               	goto	u1391
  5654  0B65  2B67               	goto	u1390
  5655  0B66                     u1391:
  5656  0B66  2B42               	goto	l1929
  5657  0B67                     u1390:
  5658  0B67                     l1939:
  5659  0B67  085E               	movf	___awdiv@sign,w
  5660  0B68  1903               	btfsc	3,2
  5661  0B69  2B6B               	goto	u1401
  5662  0B6A  2B6C               	goto	u1400
  5663  0B6B                     u1401:
  5664  0B6B  2B71               	goto	l1943
  5665  0B6C                     u1400:
  5666  0B6C                     l1941:
  5667  0B6C  09DF               	comf	___awdiv@quotient,f
  5668  0B6D  09E0               	comf	___awdiv@quotient+1,f
  5669  0B6E  0ADF               	incf	___awdiv@quotient,f
  5670  0B6F  1903               	skipnz
  5671  0B70  0AE0               	incf	___awdiv@quotient+1,f
  5672  0B71                     l1943:
  5673  0B71  0860               	movf	___awdiv@quotient+1,w
  5674  0B72  00D9               	movwf	?___awdiv+1
  5675  0B73  085F               	movf	___awdiv@quotient,w
  5676  0B74  00D8               	movwf	?___awdiv
  5677  0B75                     l528:
  5678  0B75  0008               	return
  5679  0B76                     __end_of___awdiv:
  5680                           
  5681                           	psect	text12
  5682  0964                     __ptext12:	
  5683 ;; *************** function _I2C_Master_Write *****************
  5684 ;; Defined at:
  5685 ;;		line 47 in file "I2C.c"
  5686 ;; Parameters:    Size  Location     Type
  5687 ;;  d               2    3[COMMON] unsigned int 
  5688 ;; Auto vars:     Size  Location     Type
  5689 ;;		None
  5690 ;; Return value:  Size  Location     Type
  5691 ;;                  1    wreg      void 
  5692 ;; Registers used:
  5693 ;;		wreg, status,2, status,0, pclath, cstack
  5694 ;; Tracked objects:
  5695 ;;		On entry : 0/0
  5696 ;;		On exit  : 0/0
  5697 ;;		Unchanged: 0/0
  5698 ;; Data sizes:     COMMON   BANK0   BANK1   BANK3   BANK2
  5699 ;;      Params:         2       0       0       0       0
  5700 ;;      Locals:         0       0       0       0       0
  5701 ;;      Temps:          0       0       0       0       0
  5702 ;;      Totals:         2       0       0       0       0
  5703 ;;Total ram usage:        2 bytes
  5704 ;; Hardware stack levels used: 1
  5705 ;; Hardware stack levels required when called: 3
  5706 ;; This function calls:
  5707 ;;		_I2C_Master_Wait
  5708 ;; This function is called by:
  5709 ;;		_main
  5710 ;; This function uses a non-reentrant model
  5711 ;;
  5712                           
  5713  0964                     _I2C_Master_Write:	
  5714                           ;psect for function _I2C_Master_Write
  5715                           
  5716  0964                     l2515:	
  5717                           ;incstack = 0
  5718                           ; Regs used in _I2C_Master_Write: [wreg+status,2+status,0+pclath+cstack]
  5719                           
  5720                           
  5721                           ;I2C.c: 47: void I2C_Master_Write(unsigned d);I2C.c: 48: {;I2C.c: 49:     I2C_Master_Wai
      +                          t();
  5722  0964  120A  118A  27EA  120A  158A  	fcall	_I2C_Master_Wait
  5723  0969                     l2517:
  5724                           
  5725                           ;I2C.c: 50:     SSPBUF = d;
  5726  0969  0873               	movf	I2C_Master_Write@d,w
  5727  096A  1283               	bcf	3,5	;RP0=0, select bank0
  5728  096B  1303               	bcf	3,6	;RP1=0, select bank0
  5729  096C  0093               	movwf	19	;volatile
  5730  096D                     l255:
  5731  096D  0008               	return
  5732  096E                     __end_of_I2C_Master_Write:
  5733                           
  5734                           	psect	text13
  5735  07F7                     __ptext13:	
  5736 ;; *************** function _I2C_Master_Stop *****************
  5737 ;; Defined at:
  5738 ;;		line 41 in file "I2C.c"
  5739 ;; Parameters:    Size  Location     Type
  5740 ;;		None
  5741 ;; Auto vars:     Size  Location     Type
  5742 ;;		None
  5743 ;; Return value:  Size  Location     Type
  5744 ;;                  1    wreg      void 
  5745 ;; Registers used:
  5746 ;;		wreg, status,2, status,0, pclath, cstack
  5747 ;; Tracked objects:
  5748 ;;		On entry : 0/0
  5749 ;;		On exit  : 0/0
  5750 ;;		Unchanged: 0/0
  5751 ;; Data sizes:     COMMON   BANK0   BANK1   BANK3   BANK2
  5752 ;;      Params:         0       0       0       0       0
  5753 ;;      Locals:         0       0       0       0       0
  5754 ;;      Temps:          0       0       0       0       0
  5755 ;;      Totals:         0       0       0       0       0
  5756 ;;Total ram usage:        0 bytes
  5757 ;; Hardware stack levels used: 1
  5758 ;; Hardware stack levels required when called: 3
  5759 ;; This function calls:
  5760 ;;		_I2C_Master_Wait
  5761 ;; This function is called by:
  5762 ;;		_main
  5763 ;; This function uses a non-reentrant model
  5764 ;;
  5765                           
  5766  07F7                     _I2C_Master_Stop:	
  5767                           ;psect for function _I2C_Master_Stop
  5768                           
  5769  07F7                     l2519:	
  5770                           ;incstack = 0
  5771                           ; Regs used in _I2C_Master_Stop: [wreg+status,2+status,0+pclath+cstack]
  5772                           
  5773                           
  5774                           ;I2C.c: 43:     I2C_Master_Wait();
  5775  07F7  120A  118A  27EA  120A  118A  	fcall	_I2C_Master_Wait
  5776  07FC                     l2521:
  5777                           
  5778                           ;I2C.c: 44:     SSPCON2bits.PEN = 1;
  5779  07FC  1683               	bsf	3,5	;RP0=1, select bank1
  5780  07FD  1303               	bcf	3,6	;RP1=0, select bank1
  5781  07FE  1511               	bsf	17,2	;volatile
  5782  07FF                     l252:
  5783  07FF  0008               	return
  5784  0800                     __end_of_I2C_Master_Stop:
  5785                           
  5786                           	psect	text14
  5787  095B                     __ptext14:	
  5788 ;; *************** function _I2C_Master_Start *****************
  5789 ;; Defined at:
  5790 ;;		line 29 in file "I2C.c"
  5791 ;; Parameters:    Size  Location     Type
  5792 ;;		None
  5793 ;; Auto vars:     Size  Location     Type
  5794 ;;		None
  5795 ;; Return value:  Size  Location     Type
  5796 ;;                  1    wreg      void 
  5797 ;; Registers used:
  5798 ;;		wreg, status,2, status,0, pclath, cstack
  5799 ;; Tracked objects:
  5800 ;;		On entry : 0/0
  5801 ;;		On exit  : 0/0
  5802 ;;		Unchanged: 0/0
  5803 ;; Data sizes:     COMMON   BANK0   BANK1   BANK3   BANK2
  5804 ;;      Params:         0       0       0       0       0
  5805 ;;      Locals:         0       0       0       0       0
  5806 ;;      Temps:          0       0       0       0       0
  5807 ;;      Totals:         0       0       0       0       0
  5808 ;;Total ram usage:        0 bytes
  5809 ;; Hardware stack levels used: 1
  5810 ;; Hardware stack levels required when called: 3
  5811 ;; This function calls:
  5812 ;;		_I2C_Master_Wait
  5813 ;; This function is called by:
  5814 ;;		_main
  5815 ;; This function uses a non-reentrant model
  5816 ;;
  5817                           
  5818  095B                     _I2C_Master_Start:	
  5819                           ;psect for function _I2C_Master_Start
  5820                           
  5821  095B                     l2511:	
  5822                           ;incstack = 0
  5823                           ; Regs used in _I2C_Master_Start: [wreg+status,2+status,0+pclath+cstack]
  5824                           
  5825                           
  5826                           ;I2C.c: 31:     I2C_Master_Wait();
  5827  095B  120A  118A  27EA  120A  158A  	fcall	_I2C_Master_Wait
  5828  0960                     l2513:
  5829                           
  5830                           ;I2C.c: 32:     SSPCON2bits.SEN = 1;
  5831  0960  1683               	bsf	3,5	;RP0=1, select bank1
  5832  0961  1303               	bcf	3,6	;RP1=0, select bank1
  5833  0962  1411               	bsf	17,0	;volatile
  5834  0963                     l246:
  5835  0963  0008               	return
  5836  0964                     __end_of_I2C_Master_Start:
  5837                           
  5838                           	psect	text15
  5839  0952                     __ptext15:	
  5840 ;; *************** function _I2C_Master_RepeatedStart *****************
  5841 ;; Defined at:
  5842 ;;		line 35 in file "I2C.c"
  5843 ;; Parameters:    Size  Location     Type
  5844 ;;		None
  5845 ;; Auto vars:     Size  Location     Type
  5846 ;;		None
  5847 ;; Return value:  Size  Location     Type
  5848 ;;                  1    wreg      void 
  5849 ;; Registers used:
  5850 ;;		wreg, status,2, status,0, pclath, cstack
  5851 ;; Tracked objects:
  5852 ;;		On entry : 0/0
  5853 ;;		On exit  : 0/0
  5854 ;;		Unchanged: 0/0
  5855 ;; Data sizes:     COMMON   BANK0   BANK1   BANK3   BANK2
  5856 ;;      Params:         0       0       0       0       0
  5857 ;;      Locals:         0       0       0       0       0
  5858 ;;      Temps:          0       0       0       0       0
  5859 ;;      Totals:         0       0       0       0       0
  5860 ;;Total ram usage:        0 bytes
  5861 ;; Hardware stack levels used: 1
  5862 ;; Hardware stack levels required when called: 3
  5863 ;; This function calls:
  5864 ;;		_I2C_Master_Wait
  5865 ;; This function is called by:
  5866 ;;		_main
  5867 ;; This function uses a non-reentrant model
  5868 ;;
  5869                           
  5870  0952                     _I2C_Master_RepeatedStart:	
  5871                           ;psect for function _I2C_Master_RepeatedStart
  5872                           
  5873  0952                     l2523:	
  5874                           ;incstack = 0
  5875                           ; Regs used in _I2C_Master_RepeatedStart: [wreg+status,2+status,0+pclath+cstack]
  5876                           
  5877                           
  5878                           ;I2C.c: 37:     I2C_Master_Wait();
  5879  0952  120A  118A  27EA  120A  158A  	fcall	_I2C_Master_Wait
  5880  0957                     l2525:
  5881                           
  5882                           ;I2C.c: 38:     SSPCON2bits.RSEN = 1;
  5883  0957  1683               	bsf	3,5	;RP0=1, select bank1
  5884  0958  1303               	bcf	3,6	;RP1=0, select bank1
  5885  0959  1491               	bsf	17,1	;volatile
  5886  095A                     l249:
  5887  095A  0008               	return
  5888  095B                     __end_of_I2C_Master_RepeatedStart:
  5889                           
  5890                           	psect	text16
  5891  0985                     __ptext16:	
  5892 ;; *************** function _I2C_Master_Read *****************
  5893 ;; Defined at:
  5894 ;;		line 53 in file "I2C.c"
  5895 ;; Parameters:    Size  Location     Type
  5896 ;;  a               2    3[COMMON] unsigned short 
  5897 ;; Auto vars:     Size  Location     Type
  5898 ;;  temp            2    0[BANK0 ] unsigned short 
  5899 ;; Return value:  Size  Location     Type
  5900 ;;                  2    3[COMMON] unsigned short 
  5901 ;; Registers used:
  5902 ;;		wreg, status,2, status,0, pclath, cstack
  5903 ;; Tracked objects:
  5904 ;;		On entry : 0/0
  5905 ;;		On exit  : 0/0
  5906 ;;		Unchanged: 0/0
  5907 ;; Data sizes:     COMMON   BANK0   BANK1   BANK3   BANK2
  5908 ;;      Params:         2       0       0       0       0
  5909 ;;      Locals:         0       2       0       0       0
  5910 ;;      Temps:          2       0       0       0       0
  5911 ;;      Totals:         4       2       0       0       0
  5912 ;;Total ram usage:        6 bytes
  5913 ;; Hardware stack levels used: 1
  5914 ;; Hardware stack levels required when called: 3
  5915 ;; This function calls:
  5916 ;;		_I2C_Master_Wait
  5917 ;; This function is called by:
  5918 ;;		_main
  5919 ;; This function uses a non-reentrant model
  5920 ;;
  5921                           
  5922  0985                     _I2C_Master_Read:	
  5923                           ;psect for function _I2C_Master_Read
  5924                           
  5925  0985                     l2527:	
  5926                           ;incstack = 0
  5927                           ; Regs used in _I2C_Master_Read: [wreg+status,2+status,0+pclath+cstack]
  5928                           
  5929                           
  5930                           ;I2C.c: 53: unsigned short I2C_Master_Read(unsigned short a);I2C.c: 54: {;I2C.c: 55:    
      +                           unsigned short temp;;I2C.c: 56:     I2C_Master_Wait();
  5931  0985  120A  118A  27EA  120A  158A  	fcall	_I2C_Master_Wait
  5932  098A                     l2529:
  5933                           
  5934                           ;I2C.c: 57:     SSPCON2bits.RCEN = 1;
  5935  098A  1683               	bsf	3,5	;RP0=1, select bank1
  5936  098B  1303               	bcf	3,6	;RP1=0, select bank1
  5937  098C  1591               	bsf	17,3	;volatile
  5938                           
  5939                           ;I2C.c: 58:     I2C_Master_Wait();
  5940  098D  120A  118A  27EA  120A  158A  	fcall	_I2C_Master_Wait
  5941  0992                     l2531:
  5942                           
  5943                           ;I2C.c: 59:     temp = SSPBUF;
  5944  0992  1283               	bcf	3,5	;RP0=0, select bank0
  5945  0993  1303               	bcf	3,6	;RP1=0, select bank0
  5946  0994  0813               	movf	19,w	;volatile
  5947  0995  00F5               	movwf	??_I2C_Master_Read
  5948  0996  01F6               	clrf	??_I2C_Master_Read+1
  5949  0997  0875               	movf	??_I2C_Master_Read,w
  5950  0998  00A0               	movwf	I2C_Master_Read@temp
  5951  0999  0876               	movf	??_I2C_Master_Read+1,w
  5952  099A  00A1               	movwf	I2C_Master_Read@temp+1
  5953  099B                     l2533:
  5954                           
  5955                           ;I2C.c: 60:     I2C_Master_Wait();
  5956  099B  120A  118A  27EA  120A  158A  	fcall	_I2C_Master_Wait
  5957  09A0                     l2535:
  5958                           
  5959                           ;I2C.c: 61:     if(a == 1){
  5960  09A0  0373               	decf	I2C_Master_Read@a,w
  5961  09A1  0474               	iorwf	I2C_Master_Read@a+1,w
  5962  09A2  1D03               	btfss	3,2
  5963  09A3  29A5               	goto	u1801
  5964  09A4  29A6               	goto	u1800
  5965  09A5                     u1801:
  5966  09A5  29AA               	goto	l258
  5967  09A6                     u1800:
  5968  09A6                     l2537:
  5969                           
  5970                           ;I2C.c: 62:         SSPCON2bits.ACKDT = 0;
  5971  09A6  1683               	bsf	3,5	;RP0=1, select bank1
  5972  09A7  1303               	bcf	3,6	;RP1=0, select bank1
  5973  09A8  1291               	bcf	17,5	;volatile
  5974                           
  5975                           ;I2C.c: 63:     }else{
  5976  09A9  29AD               	goto	l259
  5977  09AA                     l258:
  5978                           
  5979                           ;I2C.c: 64:         SSPCON2bits.ACKDT = 1;
  5980  09AA  1683               	bsf	3,5	;RP0=1, select bank1
  5981  09AB  1303               	bcf	3,6	;RP1=0, select bank1
  5982  09AC  1691               	bsf	17,5	;volatile
  5983  09AD                     l259:	
  5984                           ;I2C.c: 65:     }
  5985                           
  5986                           
  5987                           ;I2C.c: 66:     SSPCON2bits.ACKEN = 1;
  5988  09AD  1611               	bsf	17,4	;volatile
  5989  09AE                     l2539:
  5990                           
  5991                           ;I2C.c: 67:     return temp;
  5992  09AE  1283               	bcf	3,5	;RP0=0, select bank0
  5993  09AF  1303               	bcf	3,6	;RP1=0, select bank0
  5994  09B0  0821               	movf	I2C_Master_Read@temp+1,w
  5995  09B1  00F4               	movwf	?_I2C_Master_Read+1
  5996  09B2  0820               	movf	I2C_Master_Read@temp,w
  5997  09B3  00F3               	movwf	?_I2C_Master_Read
  5998  09B4                     l260:
  5999  09B4  0008               	return
  6000  09B5                     __end_of_I2C_Master_Read:
  6001                           
  6002                           	psect	text17
  6003  07EA                     __ptext17:	
  6004 ;; *************** function _I2C_Master_Wait *****************
  6005 ;; Defined at:
  6006 ;;		line 24 in file "I2C.c"
  6007 ;; Parameters:    Size  Location     Type
  6008 ;;		None
  6009 ;; Auto vars:     Size  Location     Type
  6010 ;;		None
  6011 ;; Return value:  Size  Location     Type
  6012 ;;                  1    wreg      void 
  6013 ;; Registers used:
  6014 ;;		wreg, status,2
  6015 ;; Tracked objects:
  6016 ;;		On entry : 0/0
  6017 ;;		On exit  : 0/0
  6018 ;;		Unchanged: 0/0
  6019 ;; Data sizes:     COMMON   BANK0   BANK1   BANK3   BANK2
  6020 ;;      Params:         0       0       0       0       0
  6021 ;;      Locals:         0       0       0       0       0
  6022 ;;      Temps:          0       0       0       0       0
  6023 ;;      Totals:         0       0       0       0       0
  6024 ;;Total ram usage:        0 bytes
  6025 ;; Hardware stack levels used: 1
  6026 ;; Hardware stack levels required when called: 2
  6027 ;; This function calls:
  6028 ;;		Nothing
  6029 ;; This function is called by:
  6030 ;;		_I2C_Master_Start
  6031 ;;		_I2C_Master_RepeatedStart
  6032 ;;		_I2C_Master_Stop
  6033 ;;		_I2C_Master_Write
  6034 ;;		_I2C_Master_Read
  6035 ;; This function uses a non-reentrant model
  6036 ;;
  6037                           
  6038  07EA                     _I2C_Master_Wait:	
  6039                           ;psect for function _I2C_Master_Wait
  6040                           
  6041  07EA                     l2471:	
  6042                           ;incstack = 0
  6043                           ; Regs used in _I2C_Master_Wait: [wreg+status,2]
  6044                           
  6045  07EA                     l240:	
  6046                           ;I2C.c: 26:     while ((SSPSTAT & 0x04) || (SSPCON2 & 0x1F));
  6047                           
  6048  07EA  1683               	bsf	3,5	;RP0=1, select bank1
  6049  07EB  1303               	bcf	3,6	;RP1=0, select bank1
  6050  07EC  1914               	btfsc	20,2	;volatile
  6051  07ED  2FEF               	goto	u1731
  6052  07EE  2FF0               	goto	u1730
  6053  07EF                     u1731:
  6054  07EF  2FEA               	goto	l240
  6055  07F0                     u1730:
  6056  07F0                     l2473:
  6057  07F0  0811               	movf	17,w	;volatile
  6058  07F1  391F               	andlw	31
  6059  07F2  1D03               	btfss	3,2
  6060  07F3  2FF5               	goto	u1741
  6061  07F4  2FF6               	goto	u1740
  6062  07F5                     u1741:
  6063  07F5  2FEA               	goto	l240
  6064  07F6                     u1740:
  6065  07F6                     l243:
  6066  07F6  0008               	return
  6067  07F7                     __end_of_I2C_Master_Wait:
  6068                           
  6069                           	psect	text18
  6070  0B76                     __ptext18:	
  6071 ;; *************** function _isr *****************
  6072 ;; Defined at:
  6073 ;;		line 90 in file "MASTER_Proyecto.c"
  6074 ;; Parameters:    Size  Location     Type
  6075 ;;		None
  6076 ;; Auto vars:     Size  Location     Type
  6077 ;;		None
  6078 ;; Return value:  Size  Location     Type
  6079 ;;                  1    wreg      void 
  6080 ;; Registers used:
  6081 ;;		wreg, status,2, status,0, pclath, cstack
  6082 ;; Tracked objects:
  6083 ;;		On entry : 0/0
  6084 ;;		On exit  : 0/0
  6085 ;;		Unchanged: 0/0
  6086 ;; Data sizes:     COMMON   BANK0   BANK1   BANK3   BANK2
  6087 ;;      Params:         0       0       0       0       0
  6088 ;;      Locals:         0       0       0       0       0
  6089 ;;      Temps:          3       0       0       0       0
  6090 ;;      Totals:         3       0       0       0       0
  6091 ;;Total ram usage:        3 bytes
  6092 ;; Hardware stack levels used: 1
  6093 ;; Hardware stack levels required when called: 1
  6094 ;; This function calls:
  6095 ;;		i1_tmr0_reload
  6096 ;; This function is called by:
  6097 ;;		Interrupt level 1
  6098 ;; This function uses a non-reentrant model
  6099 ;;
  6100                           
  6101  0B76                     _isr:	
  6102                           ;psect for function _isr
  6103                           
  6104  0B76                     i1l1953:
  6105                           
  6106                           ;MASTER_Proyecto.c: 92:    if (INTCONbits.T0IF){
  6107  0B76  1D0B               	btfss	11,2	;volatile
  6108  0B77  2B79               	goto	u141_21
  6109  0B78  2B7A               	goto	u141_20
  6110  0B79                     u141_21:
  6111  0B79  2B7F               	goto	i1l1957
  6112  0B7A                     u141_20:
  6113  0B7A                     i1l1955:
  6114                           
  6115                           ;MASTER_Proyecto.c: 93:             tmr0_reload();
  6116  0B7A  120A  158A  213E  120A  158A  	fcall	i1_tmr0_reload
  6117  0B7F                     i1l1957:
  6118                           
  6119                           ;MASTER_Proyecto.c: 97:    if(PIR1bits.RCIF){
  6120  0B7F  1283               	bcf	3,5	;RP0=0, select bank0
  6121  0B80  1303               	bcf	3,6	;RP1=0, select bank0
  6122  0B81  1E8C               	btfss	12,5	;volatile
  6123  0B82  2B84               	goto	u142_21
  6124  0B83  2B85               	goto	u142_20
  6125  0B84                     u142_21:
  6126  0B84  2BDD               	goto	i1l159
  6127  0B85                     u142_20:
  6128  0B85                     i1l1959:
  6129                           
  6130                           ;MASTER_Proyecto.c: 99:        PORTB = RCREG;
  6131  0B85  081A               	movf	26,w	;volatile
  6132  0B86  0086               	movwf	6	;volatile
  6133  0B87                     i1l1961:
  6134                           
  6135                           ;MASTER_Proyecto.c: 100:         if (RCREG == 49){
  6136  0B87  3031               	movlw	49
  6137  0B88  061A               	xorwf	26,w	;volatile
  6138  0B89  1D03               	btfss	3,2
  6139  0B8A  2B8C               	goto	u143_21
  6140  0B8B  2B8D               	goto	u143_20
  6141  0B8C                     u143_21:
  6142  0B8C  2B90               	goto	i1l1965
  6143  0B8D                     u143_20:
  6144  0B8D                     i1l1963:
  6145                           
  6146                           ;MASTER_Proyecto.c: 101:            cont = 1;
  6147  0B8D  01E5               	clrf	_cont
  6148  0B8E  0AE5               	incf	_cont,f
  6149                           
  6150                           ;MASTER_Proyecto.c: 102:         }
  6151  0B8F  2BDD               	goto	i1l159
  6152  0B90                     i1l1965:
  6153  0B90  3032               	movlw	50
  6154  0B91  061A               	xorwf	26,w	;volatile
  6155  0B92  1D03               	btfss	3,2
  6156  0B93  2B95               	goto	u144_21
  6157  0B94  2B96               	goto	u144_20
  6158  0B95                     u144_21:
  6159  0B95  2B9B               	goto	i1l1969
  6160  0B96                     u144_20:
  6161  0B96                     i1l1967:
  6162                           
  6163                           ;MASTER_Proyecto.c: 104:            cont = 2;
  6164  0B96  3002               	movlw	2
  6165  0B97  00F0               	movwf	??_isr
  6166  0B98  0870               	movf	??_isr,w
  6167  0B99  00E5               	movwf	_cont
  6168                           
  6169                           ;MASTER_Proyecto.c: 105:         }
  6170  0B9A  2BDD               	goto	i1l159
  6171  0B9B                     i1l1969:
  6172  0B9B  3033               	movlw	51
  6173  0B9C  061A               	xorwf	26,w	;volatile
  6174  0B9D  1D03               	btfss	3,2
  6175  0B9E  2BA0               	goto	u145_21
  6176  0B9F  2BA1               	goto	u145_20
  6177  0BA0                     u145_21:
  6178  0BA0  2BA6               	goto	i1l1973
  6179  0BA1                     u145_20:
  6180  0BA1                     i1l1971:
  6181                           
  6182                           ;MASTER_Proyecto.c: 107:            cont = 3;
  6183  0BA1  3003               	movlw	3
  6184  0BA2  00F0               	movwf	??_isr
  6185  0BA3  0870               	movf	??_isr,w
  6186  0BA4  00E5               	movwf	_cont
  6187                           
  6188                           ;MASTER_Proyecto.c: 108:         }
  6189  0BA5  2BDD               	goto	i1l159
  6190  0BA6                     i1l1973:
  6191  0BA6  3034               	movlw	52
  6192  0BA7  061A               	xorwf	26,w	;volatile
  6193  0BA8  1D03               	btfss	3,2
  6194  0BA9  2BAB               	goto	u146_21
  6195  0BAA  2BAC               	goto	u146_20
  6196  0BAB                     u146_21:
  6197  0BAB  2BB1               	goto	i1l1977
  6198  0BAC                     u146_20:
  6199  0BAC                     i1l1975:
  6200                           
  6201                           ;MASTER_Proyecto.c: 110:            cont = 4;
  6202  0BAC  3004               	movlw	4
  6203  0BAD  00F0               	movwf	??_isr
  6204  0BAE  0870               	movf	??_isr,w
  6205  0BAF  00E5               	movwf	_cont
  6206                           
  6207                           ;MASTER_Proyecto.c: 111:         }
  6208  0BB0  2BDD               	goto	i1l159
  6209  0BB1                     i1l1977:
  6210  0BB1  3035               	movlw	53
  6211  0BB2  061A               	xorwf	26,w	;volatile
  6212  0BB3  1D03               	btfss	3,2
  6213  0BB4  2BB6               	goto	u147_21
  6214  0BB5  2BB7               	goto	u147_20
  6215  0BB6                     u147_21:
  6216  0BB6  2BBC               	goto	i1l1981
  6217  0BB7                     u147_20:
  6218  0BB7                     i1l1979:
  6219                           
  6220                           ;MASTER_Proyecto.c: 113:            cont = 5;
  6221  0BB7  3005               	movlw	5
  6222  0BB8  00F0               	movwf	??_isr
  6223  0BB9  0870               	movf	??_isr,w
  6224  0BBA  00E5               	movwf	_cont
  6225                           
  6226                           ;MASTER_Proyecto.c: 114:         }
  6227  0BBB  2BDD               	goto	i1l159
  6228  0BBC                     i1l1981:
  6229  0BBC  3036               	movlw	54
  6230  0BBD  061A               	xorwf	26,w	;volatile
  6231  0BBE  1D03               	btfss	3,2
  6232  0BBF  2BC1               	goto	u148_21
  6233  0BC0  2BC2               	goto	u148_20
  6234  0BC1                     u148_21:
  6235  0BC1  2BC7               	goto	i1l1985
  6236  0BC2                     u148_20:
  6237  0BC2                     i1l1983:
  6238                           
  6239                           ;MASTER_Proyecto.c: 116:            cont = 6;
  6240  0BC2  3006               	movlw	6
  6241  0BC3  00F0               	movwf	??_isr
  6242  0BC4  0870               	movf	??_isr,w
  6243  0BC5  00E5               	movwf	_cont
  6244                           
  6245                           ;MASTER_Proyecto.c: 117:         }
  6246  0BC6  2BDD               	goto	i1l159
  6247  0BC7                     i1l1985:
  6248  0BC7  3037               	movlw	55
  6249  0BC8  061A               	xorwf	26,w	;volatile
  6250  0BC9  1D03               	btfss	3,2
  6251  0BCA  2BCC               	goto	u149_21
  6252  0BCB  2BCD               	goto	u149_20
  6253  0BCC                     u149_21:
  6254  0BCC  2BD2               	goto	i1l1989
  6255  0BCD                     u149_20:
  6256  0BCD                     i1l1987:
  6257                           
  6258                           ;MASTER_Proyecto.c: 119:            cont = 7;
  6259  0BCD  3007               	movlw	7
  6260  0BCE  00F0               	movwf	??_isr
  6261  0BCF  0870               	movf	??_isr,w
  6262  0BD0  00E5               	movwf	_cont
  6263                           
  6264                           ;MASTER_Proyecto.c: 120:         }
  6265  0BD1  2BDD               	goto	i1l159
  6266  0BD2                     i1l1989:
  6267  0BD2  3038               	movlw	56
  6268  0BD3  061A               	xorwf	26,w	;volatile
  6269  0BD4  1D03               	btfss	3,2
  6270  0BD5  2BD7               	goto	u150_21
  6271  0BD6  2BD8               	goto	u150_20
  6272  0BD7                     u150_21:
  6273  0BD7  2BDD               	goto	i1l153
  6274  0BD8                     u150_20:
  6275  0BD8                     i1l1991:
  6276                           
  6277                           ;MASTER_Proyecto.c: 122:            cont = 8;
  6278  0BD8  3008               	movlw	8
  6279  0BD9  00F0               	movwf	??_isr
  6280  0BDA  0870               	movf	??_isr,w
  6281  0BDB  00E5               	movwf	_cont
  6282  0BDC  2BDD               	goto	i1l159
  6283  0BDD                     i1l153:
  6284  0BDD                     i1l159:
  6285  0BDD  0872               	movf	??_isr+2,w
  6286  0BDE  008A               	movwf	10
  6287  0BDF  0E71               	swapf	??_isr+1,w
  6288  0BE0  0083               	movwf	3
  6289  0BE1  0EFE               	swapf	btemp,f
  6290  0BE2  0E7E               	swapf	btemp,w
  6291  0BE3  0009               	retfie
  6292  0BE4                     __end_of_isr:
  6293                           
  6294                           	psect	intentry
  6295  0004                     __pintentry:	
  6296                           ;incstack = 0
  6297                           ; Regs used in _isr: [wreg+status,2+status,0+pclath+cstack]
  6298                           
  6299  0004                     interrupt_function:
  6300  007E                     saved_w	set	btemp
  6301  0004  00FE               	movwf	btemp
  6302  0005  0E03               	swapf	3,w
  6303  0006  00F1               	movwf	??_isr+1
  6304  0007  080A               	movf	10,w
  6305  0008  00F2               	movwf	??_isr+2
  6306  0009  120A  158A  2B76   	ljmp	_isr
  6307                           
  6308                           	psect	text19
  6309  093E                     __ptext19:	
  6310 ;; *************** function i1_tmr0_reload *****************
  6311 ;; Defined at:
  6312 ;;		line 63 in file "TIMER0.c"
  6313 ;; Parameters:    Size  Location     Type
  6314 ;;		None
  6315 ;; Auto vars:     Size  Location     Type
  6316 ;;		None
  6317 ;; Return value:  Size  Location     Type
  6318 ;;                  1    wreg      void 
  6319 ;; Registers used:
  6320 ;;		wreg
  6321 ;; Tracked objects:
  6322 ;;		On entry : 0/0
  6323 ;;		On exit  : 0/0
  6324 ;;		Unchanged: 0/0
  6325 ;; Data sizes:     COMMON   BANK0   BANK1   BANK3   BANK2
  6326 ;;      Params:         0       0       0       0       0
  6327 ;;      Locals:         0       0       0       0       0
  6328 ;;      Temps:          0       0       0       0       0
  6329 ;;      Totals:         0       0       0       0       0
  6330 ;;Total ram usage:        0 bytes
  6331 ;; Hardware stack levels used: 1
  6332 ;; This function calls:
  6333 ;;		Nothing
  6334 ;; This function is called by:
  6335 ;;		_isr
  6336 ;; This function uses a non-reentrant model
  6337 ;;
  6338                           
  6339  093E                     i1_tmr0_reload:	
  6340                           ;psect for function i1_tmr0_reload
  6341                           
  6342  093E                     i1l1947:	
  6343                           ;incstack = 0
  6344                           ; Regs used in i1_tmr0_reload: [wreg]
  6345                           
  6346                           
  6347                           ;TIMER0.c: 65:   TMR0 = 12;;
  6348  093E  300C               	movlw	12
  6349  093F  1283               	bcf	3,5	;RP0=0, select bank0
  6350  0940  1303               	bcf	3,6	;RP1=0, select bank0
  6351  0941  0081               	movwf	1	;volatile
  6352  0942                     i1l1949:
  6353                           
  6354                           ;TIMER0.c: 66:   INTCONbits.T0IF = 0;
  6355  0942  110B               	bcf	11,2	;volatile
  6356  0943                     i1l208:
  6357  0943  0008               	return
  6358  0944                     __end_ofi1_tmr0_reload:
  6359  007E                     btemp	set	126	;btemp
  6360  007E                     wtemp0	set	126
  6361                           
  6362                           	psect	idloc
  6363                           
  6364                           ;Config register IDLOC0 @ 0x2000
  6365                           ;	unspecified, using default values
  6366  2000                     	org	8192
  6367  2000  3FFF               	dw	16383
  6368                           
  6369                           ;Config register IDLOC1 @ 0x2001
  6370                           ;	unspecified, using default values
  6371  2001                     	org	8193
  6372  2001  3FFF               	dw	16383
  6373                           
  6374                           ;Config register IDLOC2 @ 0x2002
  6375                           ;	unspecified, using default values
  6376  2002                     	org	8194
  6377  2002  3FFF               	dw	16383
  6378                           
  6379                           ;Config register IDLOC3 @ 0x2003
  6380                           ;	unspecified, using default values
  6381  2003                     	org	8195
  6382  2003  3FFF               	dw	16383
  6383                           
  6384                           	psect	config
  6385                           
  6386                           ;Config register CONFIG1 @ 0x2007
  6387                           ;	Oscillator Selection bits
  6388                           ;	FOSC = INTRC_NOCLKOUT, INTOSCIO oscillator: I/O function on RA6/OSC2/CLKOUT pin, I/O f
      +                          unction on RA7/OSC1/CLKIN
  6389                           ;	Watchdog Timer Enable bit
  6390                           ;	WDTE = OFF, WDT disabled and can be enabled by SWDTEN bit of the WDTCON register
  6391                           ;	Power-up Timer Enable bit
  6392                           ;	PWRTE = OFF, PWRT disabled
  6393                           ;	RE3/MCLR pin function select bit
  6394                           ;	MCLRE = OFF, RE3/MCLR pin function is digital input, MCLR internally tied to VDD
  6395                           ;	Code Protection bit
  6396                           ;	CP = OFF, Program memory code protection is disabled
  6397                           ;	Data Code Protection bit
  6398                           ;	CPD = OFF, Data memory code protection is disabled
  6399                           ;	Brown Out Reset Selection bits
  6400                           ;	BOREN = OFF, BOR disabled
  6401                           ;	Internal External Switchover bit
  6402                           ;	IESO = OFF, Internal/External Switchover mode is disabled
  6403                           ;	Fail-Safe Clock Monitor Enabled bit
  6404                           ;	FCMEN = OFF, Fail-Safe Clock Monitor is disabled
  6405                           ;	Low Voltage Programming Enable bit
  6406                           ;	LVP = OFF, RB3 pin has digital I/O, HV on MCLR must be used for programming
  6407                           ;	In-Circuit Debugger Mode bit
  6408                           ;	DEBUG = 0x1, unprogrammed default
  6409  2007                     	org	8199
  6410  2007  20D4               	dw	8404
  6411                           
  6412                           ;Config register CONFIG2 @ 0x2008
  6413                           ;	Brown-out Reset Selection bit
  6414                           ;	BOR4V = BOR40V, Brown-out Reset set to 4.0V
  6415                           ;	Flash Program Memory Self Write Enable bits
  6416                           ;	WRT = OFF, Write protection off
  6417  2008                     	org	8200
  6418  2008  3FFF               	dw	16383

Data Sizes:
    Strings     0
    Constant    0
    Data        0
    BSS         40
    Persistent  0
    Stack       0

Auto Spaces:
    Space          Size  Autos    Used
    COMMON           14      8      11
    BANK0            80     65      75
    BANK1            80      8      35
    BANK3            96      0       0
    BANK2            96      0       0

Pointer List with Targets:

    None.

Critical Paths under _main in COMMON

    _setup->_I2C_Master_Init
    _I2C_Master_Init->___lldiv
    _calculateTemp->___lmul
    _calculateLux->___lmul

Critical Paths under _isr in COMMON

    None.

Critical Paths under _main in BANK0

    _main->___awdiv
    _setup->_I2C_Master_Init
    _I2C_Master_Init->___lldiv
    _calculateTemp->___lmul
    _calculateLux->___lldiv
    ___awdiv->_calculateTemp

Critical Paths under _isr in BANK0

    None.

Critical Paths under _main in BANK1

    None.

Critical Paths under _isr in BANK1

    None.

Critical Paths under _main in BANK3

    None.

Critical Paths under _isr in BANK3

    None.

Critical Paths under _main in BANK2

    None.

Critical Paths under _isr in BANK2

    None.

Call Graph Tables:

 ---------------------------------------------------------------------------------
 (Depth) Function   	        Calls       Base Space   Used Autos Params    Refs
 ---------------------------------------------------------------------------------
 (0) _main                                                 8     8      0   14726
                                              0 BANK1      8     8      0
                    _I2C_Master_Read
           _I2C_Master_RepeatedStart
                   _I2C_Master_Start
                    _I2C_Master_Stop
                   _I2C_Master_Write
                            ___awdiv
                       _calculateLux
                      _calculateTemp
                              _setup
 ---------------------------------------------------------------------------------
 (1) _setup                                                0     0      0     766
                    _I2C_Master_Init
                          _init_UART
                       _init_osc_MHz
                          _tmr0_init
                        _tmr0_reload
 ---------------------------------------------------------------------------------
 (2) _tmr0_reload                                          0     0      0       0
 ---------------------------------------------------------------------------------
 (2) _tmr0_init                                            3     3      0      22
                                              3 COMMON     3     3      0
 ---------------------------------------------------------------------------------
 (2) _init_osc_MHz                                         3     3      0      22
                                              3 COMMON     3     3      0
 ---------------------------------------------------------------------------------
 (2) _init_UART                                            0     0      0       0
 ---------------------------------------------------------------------------------
 (2) _I2C_Master_Init                                      8     4      4     722
                                              4 COMMON     4     4      0
                                             13 BANK0      4     0      4
                            ___lldiv
 ---------------------------------------------------------------------------------
 (1) _calculateTemp                                       48    38     10    2354
                                              8 BANK0     48    38     10
                             ___lmul
 ---------------------------------------------------------------------------------
 (1) _calculateLux                                        42    38      4    3408
                                             13 BANK0     40    36      4
                            ___lldiv
                             ___lmul
 ---------------------------------------------------------------------------------
 (2) ___lmul                                              13     5      8    1576
                                              3 COMMON     5     5      0
                                              0 BANK0      8     0      8
 ---------------------------------------------------------------------------------
 (3) ___lldiv                                             14     6      8     601
                                              3 COMMON     1     1      0
                                              0 BANK0     13     5      8
 ---------------------------------------------------------------------------------
 (1) ___awdiv                                              9     5      4     452
                                             56 BANK0      9     5      4
                      _calculateTemp (ARG)
 ---------------------------------------------------------------------------------
 (1) _I2C_Master_Write                                     2     0      2    5431
                                              3 COMMON     2     0      2
                    _I2C_Master_Wait
 ---------------------------------------------------------------------------------
 (1) _I2C_Master_Stop                                      0     0      0       0
                    _I2C_Master_Wait
 ---------------------------------------------------------------------------------
 (1) _I2C_Master_Start                                     0     0      0       0
                    _I2C_Master_Wait
 ---------------------------------------------------------------------------------
 (1) _I2C_Master_RepeatedStart                             0     0      0       0
                    _I2C_Master_Wait
 ---------------------------------------------------------------------------------
 (1) _I2C_Master_Read                                      6     4      2    2315
                                              3 COMMON     4     2      2
                                              0 BANK0      2     2      0
                    _I2C_Master_Wait
 ---------------------------------------------------------------------------------
 (2) _I2C_Master_Wait                                      0     0      0       0
 ---------------------------------------------------------------------------------
 Estimated maximum stack depth 3
 ---------------------------------------------------------------------------------
 (Depth) Function   	        Calls       Base Space   Used Autos Params    Refs
 ---------------------------------------------------------------------------------
 (4) _isr                                                  3     3      0       0
                                              0 COMMON     3     3      0
                      i1_tmr0_reload
 ---------------------------------------------------------------------------------
 (5) i1_tmr0_reload                                        0     0      0       0
 ---------------------------------------------------------------------------------
 Estimated maximum stack depth 5
 ---------------------------------------------------------------------------------

 Call Graph Graphs:

 _main (ROOT)
   _I2C_Master_Read
     _I2C_Master_Wait
   _I2C_Master_RepeatedStart
     _I2C_Master_Wait
   _I2C_Master_Start
     _I2C_Master_Wait
   _I2C_Master_Stop
     _I2C_Master_Wait
   _I2C_Master_Write
     _I2C_Master_Wait
   ___awdiv
     _calculateTemp (ARG)
       ___lmul
   _calculateLux
     ___lldiv
     ___lmul
   _calculateTemp
   _setup
     _I2C_Master_Init
       ___lldiv
     _init_UART
     _init_osc_MHz
     _tmr0_init
     _tmr0_reload

 _isr (ROOT)
   i1_tmr0_reload

 Address spaces:
Name               Size   Autos  Total    Cost      Usage
BITCOMMON            E      0       0       0        0.0%
EEDATA             100      0       0       0        0.0%
NULL                 0      0       0       0        0.0%
CODE                 0      0       0       0        0.0%
COMMON               E      8       B       1       78.6%
BITSFR0              0      0       0       1        0.0%
SFR0                 0      0       0       1        0.0%
BITSFR1              0      0       0       2        0.0%
SFR1                 0      0       0       2        0.0%
STACK                0      0       0       2        0.0%
ABS                  0      0      79       3        0.0%
BITBANK0            50      0       0       4        0.0%
BITSFR3              0      0       0       4        0.0%
SFR3                 0      0       0       4        0.0%
BANK0               50     41      4B       5       93.8%
BITSFR2              0      0       0       5        0.0%
SFR2                 0      0       0       5        0.0%
BITBANK1            50      0       0       6        0.0%
BANK1               50      8      23       7       43.8%
BITBANK3            60      0       0       8        0.0%
BANK3               60      0       0       9        0.0%
BITBANK2            60      0       0      10        0.0%
BANK2               60      0       0      11        0.0%
DATA                 0      0      79      12        0.0%


Microchip Technology PIC Macro Assembler V2.35 build 20211206165544 
Symbol Table                                                                                   Thu Sep 29 19:39:31 2022

                              l13 0984                                l25 09E7                      ___awdiv@sign 005E  
                              fsr 0004                               l200 07B3                               l201 07B7  
                             l202 07BB                               l203 07BF                               l204 07C3  
                             l205 07E9                               l240 07EA                               l208 0949  
                             l243 07F6                               l411 0B0C                               l260 09B4  
                             l252 07FF                               l237 0A21                               l246 0963  
                             l174 0797                               l255 096D                               l272 0FFF  
                             l249 095A                               l185 0A5C                               l258 09AA  
                             l266 0D61                               l259 09AD                               l283 0F56  
                             l195 07A3                               l197 07A7                               l198 07AB  
                             l199 07AF                               l528 0B75                               l289 0FD0  
                             l389 0AA4                               _GIE 005F                               _isr 0B76  
                             _val 00B0                               _lux 00A0                               indf 0000  
                            l3001 0757                              l3011 0770                              l3003 075A  
                            l3021 0790                              l3013 0776                              l3005 0760  
                            l3015 077D                              l3007 0763                              l3017 0783  
                            l3009 0769                              l3019 078A                              l1701 0981  
                            l2501 0A52                              l2511 095B                              l1711 09C4  
                            l3063 07CF                              l2503 0A57                              l2513 0960  
                            l2521 07FC                              l2441 0AC7                              l2601 0F75  
                            l3065 09D9                              l1713 09C9                              l1705 09B6  
                            l2505 0A58                              l2531 0992                              l2523 0952  
                            l2515 0964                              l2451 0AF5                              l2443 0ACB  
                            l2435 0AA5                              l2611 0FF7                              l2603 0F92  
                            l1715 09CC                              l1707 09BA                              l2507 0A59  
                            l2533 099B                              l2525 0957                              l2517 0969  
                            l2453 0AFE                              l2445 0AD4                              l2437 0AB7  
                            l2605 0F9A                              l2461 09EC                              l1709 09BF  
                            l1725 0944                              l2701 0154                              l2471 07EA  
                            l2535 09A0                              l2527 0985                              l2519 07F7  
                            l1911 0B1B                              l1903 0B0D                              l2447 0AE6  
                            l2439 0ABA                              l2455 0B04                              l2607 0FAC  
                            l2551 0D7F                              l2543 0D62                              l2615 0BE4  
                            l2463 09EF                              l1719 09D1                              l1743 079C  
                            l1727 0948                              l2711 0180                              l2703 015D  
                            l2631 0043                              l2623 0027                              l2473 07F0  
                            l2537 09A6                              l2529 098A                              l1921 0B30  
                            l1913 0B1F                              l1905 0B10                              l2449 0AF4  
                            l2481 0A82                              l2609 0FDE                              l2561 0E04  
                            l2553 0D87                              l2545 0D6D                              l2617 0CFC  
                            l2465 0A1E                              l1745 07C7                              l2801 034E  
                            l2721 01EC                              l2713 0187                              l2705 0162  
                            l2641 0066                              l2633 004C                              l2625 002C  
                            l2539 09AE                              l1931 0B53                              l1923 0B33  
                            l1915 0B24                              l1907 0B14                              l2483 0A8B  
                            l2475 0A5D                              l2571 0E83                              l2563 0E0C  
                            l2555 0DA0                              l2547 0D76                              l2619 0D1F  
                            l2467 0A1F                              l2459 09E8                              l1691 0975  
                            l2491 0A2F                              l2811 0403                              l2803 0353  
                            l2731 023B                              l2723 0201                              l2715 019E  
                            l2707 016B                              l2651 0088                              l2643 006F  
                            l2635 0051                              l2627 0031                              l1941 0B6C  
                            l1933 0B59                              l1925 0B3A                              l1917 0B28  
                            l1909 0B19                              l2485 0A9C                              l2477 0A65  
                            l2581 0ED3                              l2573 0E96                              l2565 0E3C  
                            l2557 0DCE                              l2469 0A20                              l1693 0979  
                            l2493 0A32                              l2901 0597                              l2821 0451  
                            l2813 0438                              l2805 035A                              l2741 025E  
                            l2733 0244                              l2725 0216                              l2717 01B5  
                            l2709 017B                              l2661 00B8                              l2653 0091  
                            l2645 0077                              l2637 0058                              l2629 003A  
                            l1943 0B71                              l1935 0B5A                              l1927 0B3E  
                            l1919 0B2A                              l2479 0A6B                              l2591 0F1C  
                            l2583 0EDE                              l2575 0EA1                              l2567 0E67  
                            l2559 0DFC                              l1695 097A                              l2495 0A38  
                            l2911 05C0                              l2903 059C                              l2831 047A  
                            l2823 0456                              l2815 043A                              l2807 0377  
                            l2751 0285                              l2743 0267                              l2735 024D  
                            l2727 022D                              l2719 01E8                              l2671 00DB  
                            l2663 00BD                              l2655 009A                              l2647 007C  
                            l2639 005D                              l1937 0B61                              l1929 0B42  
                            l2593 0F30                              l2585 0EF2                              l2577 0EB4  
                            l2569 0E78                              l1697 097D                              l1689 096E  
                            l2497 0A47                              l2489 0A22                              l2921 05E3  
                            l2913 05C7                              l2905 05A5                              l2841 049D  
                            l2833 0481                              l2825 045F                              l2817 043F  
                            l2809 03BD                              l2761 02AA                              l2753 028A  
                            l2745 0270                              l2737 0252                              l2729 0232  
                            l2681 0105                              l2673 00E0                              l2665 00C4  
                            l2657 009F                              l2649 0083                              l1939 0B67  
                            l2595 0F3B                              l2587 0EFD                              l2579 0EBF  
                            l1699 0980                              l2499 0A4C                              l2931 060E  
                            l2923 05EC                              l2915 05CC                              l2907 05B3  
                            l2851 04C8                              l2843 04A6                              l2835 0486  
                            l2827 046D                              l2819 0448                              l2771 02D1  
                            l2763 02B8                              l2755 0293                              l2747 0279  
                            l2739 0259                              l2691 012A                              l2683 010A  
                            l2675 00E9                              l2667 00C9                              l2659 00A8  
                            l2597 0F4F                              l2589 0F11                              l2941 067B  
                            l2933 0617                              l2925 05FA                              l2917 05D5  
                            l2909 05BB                              l2861 04F4                              l2853 04D1  
                            l2845 04B4                              l2837 048F                              l2829 0475  
                            l2781 02FF                              l2773 02DA                              l2765 02C0  
                            l2757 029C                              l2749 027E                              l2693 013A  
                            l2685 0113                              l2677 00F9                              l2669 00D2  
                            l2599 0F56                              l2951 06A6                              l2943 0683  
                            l2935 0623                              l2927 0602                              l2919 05DE  
                            l2871 051D                              l2863 04F9                              l2855 04DD  
                            l2847 04BC                              l2839 0498                              l2791 0321  
                            l2783 0307                              l2775 02E3                              l2767 02C5  
                            l2759 02A1                              l2695 013F                              l2687 011C  
                            l2679 00FE                              l2961 06C9                              l2953 06AB  
                            l2945 068A                              l2937 066D                              l2929 0607  
                            l2881 0540                              l2873 0524                              l2865 0502  
                            l2857 04E2                              l2849 04C1                              l2793 032A  
                            l2785 030C                              l2777 02E8                              l2769 02CC  
                            l2697 0146                              l2689 0121                              l2971 06F1  
                            l2963 06D0                              l2955 06B2                              l2947 068F  
                            l2939 0672                              l2891 056B                              l2883 0549  
                            l2875 0529                              l2867 0510                              l2859 04EB  
                            l2795 032F                              l2787 0313                              l2779 02F1  
                            l2699 014B                              l2981 0716                              l2973 06F8  
                            l2965 06D5                              l2957 06B7                              l2949 0698  
                            l2893 0574                              l2885 0557                              l2877 0532  
                            l2869 0518                              l2797 0338                              l2789 0318  
                            l2991 073E                              l2983 071B                              l2975 06FD  
                            l2967 06DE                              l2959 06C0                              l2895 0580  
                            l2887 055F                              l2879 053B                              l2799 0346  
                            l2993 0745                              l2985 0724                              l2977 0706  
                            l2969 06EC                              l2897 0585                              l2889 0564  
                            l2995 0748                              l2987 0732                              l2979 070F  
                            l2899 058E                              l2997 074E                              l2989 0737  
                            l2999 0751                              ?_isr 0070                              u2000 0FEC  
                            u2010 0BF2                              u2100 0CF1                              u2020 0C03  
                            u2005 0FE7                              u1310 0B14                              u2110 0D45  
                            u1311 0B13                              u2111 0D46                              u2031 0C0D  
                            u2015 0BED                              u1400 0B6C                              u1320 0B1F  
                            u2120 0D56                              u2112 0D4B                              u2040 0C3D  
                            u2032 0C0E                              u2200 074E                              u1401 0B6B  
                            u1321 0B1E                              u2113 0D4C                              u2105 0CEC  
                            u2033 0C13                              u2025 0BFE                              u2201 074D  
                            u1330 0B30                              u2050 0C5C                              u2034 0C14  
                            u2210 0757                              u2130 01FA                              u1331 0B2F  
                            u2035 0C19                              u2211 0756                              u2036 0C1A  
                            u2220 0760                              u2140 020F                              u2125 0D51  
                            u2061 0C66                              u2045 0C38                              u2221 075F  
                            u1350 0B42                              u2070 0C8F                              u2062 0C67  
                            u2230 0769                              u2150 0224                              u1351 0B41  
                            u2063 0C6C                              u2055 0C57                              u2231 0768  
                            u2135 01F5                              u2064 0C6D                              u2240 0776  
                            u2160 039C                              u1345 0B34                              u2081 0C99  
                            u2065 0C72                              u2241 0775                              u2145 020A  
                            u1370 0B53                              u2090 0CC3                              u2082 0C9A  
                            u2066 0C73                              u2250 0783                              u2170 03E2  
                            u1371 0B52                              u2083 0C9F                              u2075 0C8A  
                            u2251 0782                              u2155 021F                              u2307 0102  
                            u2084 0CA0                              u2260 0790                              u2180 041F  
                            u1365 0B43                              u2085 0CA5                              u2261 078F  
                            u2165 0397                              u2317 0143                              u1390 0B67  
                            u1710 0B04                              u2086 0CA6                              u2190 0745  
                            u1391 0B66                              u1375 0B4F                              u1711 0B03  
                            u2095 0CBE                              u2191 0744                              u2407 0521  
                            u2175 03DD                              u2327 0184                              u1800 09A6  
                            u1720 09FF                              u1801 09A5                              u1385 0B5B  
                            u1705 0AF6                              u2417 0568                              u2185 041A  
                            u2337 0256                              u1730 07F0                              u1650 0AB7  
                            u1810 0D6D                              u1731 07EF                              u1651 0AB6  
                            u1811 0D6C                              u2427 05C4                              u2347 0282  
                            u1740 07F6                              u1900 0E78                              u1820 0D76  
                            u1741 07F5                              u1901 0E77                              u1821 0D75  
                            u1725 09FA                              u2437 060B                              u2357 02C9  
                            u2277 0055                              u1670 0ACB                              u1750 0A6B  
                            u1910 0E96                              u1830 0D95                              u1671 0ACA  
                            u1751 0A6A                              u1911 0E95                              u1903 0E74  
                            u2447 0687                              u2367 0310                              u2287 0080  
                            u1920 0EB4                              u1840 0DC3                              u1665 0ABC  
                            u1761 0A74                              u1921 0EB3                              u1913 0E92  
                            u2457 06AF                              u2377 0357                              u2297 00C1  
                            u1690 0AE6                              u1762 0A7B                              u1930 0ED3  
                            u1850 0DF1                              u1691 0AE5                              u1763 0A82  
                            u1931 0ED2                              u1923 0EB0                              u1835 0D90  
                            u2467 06CD                              u2387 047E                              u1940 0EF2  
                            u1860 0E0C                              u1685 0ACD                              u1941 0EF1  
                            u1933 0ECF                              u1861 0E0B                              u1845 0DBE  
                            u2477 06F5                              u2397 04C5                              u1790 0A9C  
                            u1950 0F11                              u1870 0E22                              u1695 0AE2  
                            u1791 0A9B                              u1775 0A84                              u1951 0F10  
                            u1943 0EEE                              u1855 0DEC                              u2487 0713  
                            u1960 0F30                              u1880 0E4B                              u1785 0A8C  
                            u1961 0F2F                              u1953 0F0D                              u1881 0E4C  
                            u2497 073B                              u1970 0F4F                              u1890 0E5C  
                            u1882 0E51                              u1971 0F4E                              u1963 0F2C  
                            u1883 0E52                              u1875 0E1D                              _PEIE 005E  
                            u1980 0FAC                              u1981 0FAB                              u1973 0F4B  
                            u1991 0FBB                              u1895 0E57                              u1992 0FBC  
                            u1993 0FC1                              u1985 0FA8                              u1994 0FC2  
                            u1995 0FC7                              u1996 0FC8                              _TMR0 0001  
                            _dig1 00A8                              _dig2 00A6                              _dig3 00A4  
__end_of_I2C_Master_RepeatedStart 095B                              _cont 0065                              _main 0027  
                            _low0 0069                              _low1 0067                              _val2 00AF  
                            _val3 00AE                              _temp 0061                              btemp 007E  
                            start 000C                             ??_isr 0070                  ?_I2C_Master_Init 002D  
                ?_I2C_Master_Read 0073                  ?_I2C_Master_Wait 0070                  ?_I2C_Master_Stop 0070  
                           ?_main 0070                   __end_of___awdiv 0B76                             _ANSEL 0188  
                 __end_of___lldiv 0B0D                   ___awdiv@divisor 0058                             i1l208 0943  
                           i1l153 0BDD                             i1l159 0BDD                   ___awdiv@counter 005D  
                           _RCREG 001A                             _SPBRG 0099                             _PORTB 0006  
                           _PORTC 0007                             _PORTD 0008                             _TRISB 0086  
                           _TRISD 0088                             _SSPIE 0463                             _SSPIF 0063  
                           _TXREG 0019               ___lmul@multiplicand 0024                             _data1 0066  
                           _data2 007A                             _data3 0079                             _data4 0078  
                           _high0 006A                             _high1 0068                             _temp1 00BA  
                           _temp2 00B9                             _temp3 00B8                             _setup 0A22  
                           pclath 000A                             status 0003                             wtemp0 007E  
                 __initialization 000F                      __end_of_main 079B                            ??_main 00BB  
               ?_I2C_Master_Start 0070                 ?_I2C_Master_Write 0073                      ?_tmr0_reload 0070  
              ??_I2C_Master_Start 0073                ??_I2C_Master_Write 0075                  ___awdiv@dividend 005A  
                          ?_setup 0070                            _ANSELH 0189                            i1l1961 0B87  
                          i1l1953 0B76                            i1l1947 093E                            i1l1971 0BA1  
                          i1l1963 0B8D                            i1l1955 0B7A                            i1l1949 0942  
                          i1l1981 0BBC                            i1l1973 0BA6                            i1l1965 0B90  
                          i1l1957 0B7F                            i1l1991 0BD8                            i1l1983 0BC2  
                          i1l1975 0BAC                            i1l1967 0B96                            i1l1959 0B85  
                          i1l1985 0BC7                            i1l1977 0BB1                            i1l1969 0B9B  
                          i1l1987 0BCD                            i1l1979 0BB7                            i1l1989 0BD2  
                          u141_20 0B7A                            u141_21 0B79                            u150_20 0BD8  
                          u142_20 0B85                            u150_21 0BD7                            u142_21 0B84  
                          u143_20 0B8D                            u143_21 0B8C                            u144_20 0B96  
                          u144_21 0B95                            u145_20 0BA1                            u145_21 0BA0  
                          u146_20 0BAC                            u146_21 0BAB                            u147_20 0BB7  
                          u147_21 0BB6                            u148_20 0BC2                            u148_21 0BC1  
                          u149_20 0BCD                            u149_21 0BCC                     calculateLux@b 0041  
                   calculateLux@m 0043                            _SPBRGH 009A                            _SSPADD 0093  
                          _TRISC3 043B                            _TRISC4 043C                            _SSPCON 0014  
                          _SSPBUF 0013                     ?_init_osc_MHz 0070          _I2C_Master_RepeatedStart 0952  
                          ___lmul 0A5D                         ??___awdiv 005C                         ??___lldiv 0073  
                init_osc_MHz@freq 0075                            _var1_1 00B7                            _var1_2 00B6  
                          _var2_1 00B5                            _var2_2 00B4                            _var3_1 00B3  
                          _var3_2 00B2                  ___awdiv@quotient 005F                      _calculateLux 0D62  
           calculateLux@broadband 002D                            saved_w 007E           __end_of__initialization 0023  
                  ??_init_osc_MHz 0073                    __pcstackCOMMON 0070                     __end_of_setup 0A5D  
                  _OPTION_REGbits 0081                           ??_setup 0078                        __pbssBANK0 0061  
                      __pbssBANK1 00A0                        __pmaintext 0027                           ?___lmul 0020  
                      __pintentry 0004                    ___lmul@product 0074                    calculateTemp@T 0056  
                  calculateLux@ir 002F                           _SSPCON2 0091                           _SSPSTAT 0094  
                         ___awdiv 0B0D                           ___lldiv 0AA5                           __ptext1 0A22  
                         __ptext2 0944                           __ptext3 079B                           __ptext4 09B5  
                         __ptext5 096E                           __ptext6 09E8                           __ptext7 0BE4  
                         __ptext8 0D62                           __ptext9 0A5D                 __end_of_init_UART 0985  
            __end_of_init_osc_MHz 09E8                     i1_tmr0_reload 093E                           clrloop0 094B  
            end_of_initialization 0023                 __end_of_tmr0_init 07EA        ??_I2C_Master_RepeatedStart 0073  
                   _calculateTemp 0BE4                   ___lldiv@divisor 0020                   ___lldiv@counter 002C  
                       _RCSTAbits 0018                  I2C_Master_Init@c 002D                  I2C_Master_Read@a 0073  
                calculateLux@temp 003D                         _TRISCbits 0087                    ?i1_tmr0_reload 0070  
                  ?_calculateTemp 0028                         _TXSTAbits 0098                    __end_of___lmul 0AA5  
                     _BAUDCTLbits 0187               start_initialization 000F                       __end_of_isr 0BE4  
               ??_I2C_Master_Init 0074                 ??_I2C_Master_Read 0075                 ??_I2C_Master_Wait 0073  
               ??_I2C_Master_Stop 0073              calculateLux@channel0 004D              calculateLux@channel1 0049  
                        ??___lmul 0073                _calculateTemp$1153 0052                   ??i1_tmr0_reload 0070  
                     __pbssCOMMON 0078                         ___latbits 0002                     __pcstackBANK0 0020  
                   __pcstackBANK1 00BB                   ??_calculateTemp 0032                      _init_osc_MHz 09B5  
                _I2C_Master_Start 095B                  _I2C_Master_Write 0964                          ?___awdiv 0058  
                        ?___lldiv 0020                     ??_tmr0_reload 0073                         _init_UART 096E  
               interrupt_function 0004                         clear_ram0 094A                         _tmr0_init 079B  
                        _PIE1bits 008C                          _PIR1bits 000C                   calculateLux@lux 0035  
              tmr0_init@prescaler 0075                     ?_calculateLux 002D                        ?_init_UART 0070  
             I2C_Master_Read@temp 0020                 ___lmul@multiplier 0020               __end_of_tmr0_reload 094A  
                      ?_tmr0_init 0070               calculateLux@chScale 0045         ?_I2C_Master_RepeatedStart 0070  
                  ??_calculateLux 0031               calculateTemp@t_fine 004E                   _I2C_Master_Init 09E8  
                 _I2C_Master_Read 0985                   _I2C_Master_Wait 07EA                          _channel0 00AC  
                        _channel1 00AA                   _I2C_Master_Stop 07F7                          __ptext10 0AA5  
                        __ptext11 0B0D                          __ptext12 0964                          __ptext13 07F7  
                        __ptext14 095B                          __ptext15 0952                          __ptext16 0985  
                        __ptext17 07EA                          __ptext18 0B76                          __ptext19 093E  
        __end_of_I2C_Master_Start 0964          __end_of_I2C_Master_Write 096E                        _INTCONbits 000B  
                     ??_init_UART 0073                       _tmr0_reload 0944                calculateLux@ratio1 0039  
                        intlevel1 0000                  ___lldiv@dividend 0024                       ??_tmr0_init 0073  
                      _OSCCONbits 008F           __end_of_I2C_Master_Init 0A22           __end_of_I2C_Master_Read 09B5  
         __end_of_I2C_Master_Wait 07F7           __end_of_I2C_Master_Stop 0800                 calculateTemp@dig1 002C  
               calculateTemp@dig2 002E                 calculateTemp@dig3 0030                 calculateLux@ratio 0051  
                     _temperatura 00B1                 calculateTemp@var1 0046                 calculateTemp@var2 004A  
               calculateTemp@temp 0028                  ___lldiv@quotient 0028                 I2C_Master_Write@d 0073  
           __end_ofi1_tmr0_reload 0944                       _SSPCON2bits 0091             __end_of_calculateTemp 0D62  
            __end_of_calculateLux 1000  
